(dp0
S'sample'
p1
(dp2
S'gtag'
p3
NsS'isdata'
p4
I00
sS'dataset'
p5
S'/TTJets_SingleLeptFromTbar_TuneCUETP8M1_13TeV-madgraphMLM-pythia8/RunIISummer16MiniAODv2-PUMoriond17_80X_mcRun2_asymptotic_2016_TrancheIV_v6_ext1-v1/MINIAODSIM'
p6
sS'pset'
p7
S''
p8
sS'finaldir'
p9
g8
sS'ijob_to_nevents'
p10
(dp11
sS'basedir'
p12
S'/home/users/dpgilber/MT2AnalysisEdit/babymaker/batchsubmit/'
p13
sS'kfact'
p14
NsS'imerged_to_ijob'
p15
(dp16
S'output'
p17
(dp18
I1
(lp19
I1
aI10
aI100
aI101
aI102
aI103
aI104
aI105
aI106
aI107
aI108
aI109
asI2
(lp20
I11
aI110
aI111
aI112
aI113
aI114
aI115
aI116
aI117
aI118
aI119
aI12
asI3
(lp21
I120
aI121
aI122
aI123
aI124
aI125
aI126
aI127
aI128
aI129
aI13
aI130
asI4
(lp22
I131
aI132
aI133
aI134
aI135
aI136
aI137
aI138
aI139
aI14
aI140
asI5
(lp23
I141
aI142
aI143
aI144
aI145
aI146
aI147
aI148
aI149
aI15
aI150
asI6
(lp24
I151
aI152
aI153
aI154
aI155
aI156
aI157
aI158
aI159
aI16
aI160
aI161
asI7
(lp25
I162
aI163
aI164
aI165
aI166
aI167
aI168
aI169
aI17
aI170
aI171
aI172
asI8
(lp26
I173
aI174
aI175
aI176
aI177
aI178
aI179
aI18
aI180
aI181
aI182
aI183
asI9
(lp27
I184
aI185
aI186
aI187
aI188
aI189
aI19
aI190
aI191
aI192
aI193
aI194
asI10
(lp28
I195
aI196
aI197
aI198
aI199
aI2
aI20
aI200
aI201
aI202
aI204
aI205
asI11
(lp29
I206
aI207
aI208
aI209
aI21
aI210
aI211
aI212
aI213
aI214
aI215
asI12
(lp30
I216
aI217
aI218
aI219
aI22
aI220
aI221
aI222
aI223
aI224
aI225
asI13
(lp31
I226
aI227
aI228
aI229
aI23
aI230
aI231
aI232
aI233
aI234
aI235
aI236
asI14
(lp32
I237
aI238
aI239
aI24
aI240
aI241
aI242
aI243
aI244
aI245
aI246
aI247
asI15
(lp33
I248
aI249
aI25
aI250
aI251
aI252
aI253
aI254
aI255
aI256
aI257
aI258
asI16
(lp34
I259
aI26
aI260
aI261
aI262
aI263
aI264
aI265
aI266
aI267
aI268
aI269
asI17
(lp35
I27
aI270
aI271
aI28
aI29
aI3
aI30
aI31
aI32
aI33
aI34
asI18
(lp36
I35
aI36
aI37
aI38
aI39
aI4
aI40
aI41
aI42
aI43
aI44
aI45
aI46
asI19
(lp37
I47
aI48
aI49
aI5
aI50
aI51
aI52
aI53
aI54
aI55
aI56
aI57
asI20
(lp38
I58
aI59
aI6
aI60
aI61
aI62
aI63
aI64
aI65
aI66
aI67
asI21
(lp39
I68
aI69
aI7
aI70
aI71
aI72
aI73
aI74
aI75
aI76
aI77
asI22
(lp40
I78
aI79
aI8
aI80
aI81
aI82
aI83
aI84
aI85
aI86
aI87
aI88
asI23
(lp41
I89
aI9
aI90
aI91
aI92
aI93
aI94
aI95
aI96
aI97
aI98
aI99
assS'skim'
p42
(dp43
I1
(lp44
I1
aI10
aI100
aI101
aI102
aI103
aI104
aI105
aI106
aI107
aI108
aI109
aI11
aI110
aI111
aI112
aI113
aI114
aI115
aI116
aI117
aI118
aI119
aI12
aI120
aI121
aI122
aI123
aI124
aI125
aI126
aI127
aI128
aI129
aI13
aI130
aI131
aI132
aI133
aI134
aI135
aI136
aI137
aI138
aI139
aI14
aI140
aI141
aI142
aI143
aI144
aI145
aI146
aI147
aI148
aI149
aI15
aI150
aI151
aI152
aI153
aI154
aI155
aI156
aI157
aI158
aI159
aI16
aI160
aI161
aI162
aI163
aI164
aI165
aI166
aI167
aI168
aI169
aI17
aI170
aI171
aI172
aI173
aI174
aI175
aI176
aI177
aI178
aI179
aI18
aI180
aI181
aI182
aI183
aI184
aI185
aI186
aI187
aI188
aI189
aI19
aI190
aI191
aI192
aI193
aI194
aI195
aI196
aI197
aI198
aI199
aI2
aI20
aI200
aI201
aI202
aI204
aI205
aI206
aI207
aI208
aI209
aI21
aI210
aI211
aI212
aI213
aI214
aI215
aI216
aI217
aI218
aI219
aI22
aI220
aI221
aI222
aI223
aI224
aI225
aI226
aI227
aI228
aI229
aI23
aI230
aI231
aI232
aI233
aI234
aI235
aI236
aI237
aI238
aI239
aI24
aI240
aI241
aI242
aI243
aI244
aI245
aI246
aI247
aI248
aI249
aI25
aI250
aI251
aI252
aI253
aI254
aI255
aI256
aI257
aI258
aI259
aI26
aI260
aI261
aI262
aI263
aI264
aI265
aI266
aI267
aI268
aI269
aI27
aI270
aI271
aI28
aI29
aI3
aI30
aI31
aI32
aI33
aI34
aI35
aI36
aI37
aI38
aI39
aI4
aI40
aI41
aI42
aI43
aI44
aI45
aI46
aI47
aI48
aI49
aI5
aI50
aI51
aI52
aI53
aI54
aI55
aI56
aI57
aI58
aI59
aI6
aI60
aI61
aI62
aI63
aI64
aI65
aI66
aI67
aI68
aI69
aI7
aI70
aI71
aI72
aI73
aI74
aI75
aI76
aI77
aI78
aI79
aI8
aI80
aI81
aI82
aI83
aI84
aI85
aI86
aI87
aI88
aI89
aI9
aI90
aI91
aI92
aI93
aI94
aI95
aI96
aI97
aI98
aI99
assS'skim_rphi'
p45
(dp46
I1
(lp47
I1
aI10
aI100
aI101
aI102
aI103
aI104
aI105
aI106
aI107
aI108
aI109
aI11
aI110
aI111
aI112
aI113
aI114
aI115
aI116
aI117
aI118
aI119
aI12
aI120
aI121
aI122
aI123
aI124
aI125
aI126
aI127
aI128
aI129
aI13
aI130
aI131
aI132
aI133
aI134
aI135
aI136
aI137
aI138
aI139
aI14
aI140
aI141
aI142
aI143
aI144
aI145
aI146
aI147
aI148
aI149
aI15
aI150
aI151
aI152
aI153
aI154
aI155
aI156
aI157
aI158
aI159
aI16
aI160
aI161
aI162
aI163
aI164
aI165
aI166
aI167
aI168
aI169
aI17
aI170
aI171
aI172
aI173
aI174
aI175
aI176
aI177
aI178
aI179
aI18
aI180
aI181
aI182
aI183
aI184
aI185
aI186
aI187
aI188
aI189
aI19
aI190
aI191
aI192
aI193
aI194
aI195
aI196
aI197
aI198
aI199
aI2
aI20
aI200
aI201
aI202
aI204
aI205
aI206
aI207
aI208
aI209
aI21
aI210
aI211
aI212
aI213
aI214
aI215
aI216
aI217
aI218
aI219
aI22
aI220
aI221
aI222
aI223
aI224
aI225
aI226
aI227
aI228
aI229
aI23
aI230
aI231
aI232
aI233
aI234
aI235
aI236
aI237
aI238
aI239
aI24
aI240
aI241
aI242
aI243
aI244
aI245
aI246
aI247
aI248
aI249
aI25
aI250
aI251
aI252
aI253
aI254
aI255
aI256
aI257
aI258
aI259
aI26
aI260
aI261
aI262
aI263
aI264
aI265
aI266
aI267
aI268
aI269
aI27
aI270
aI271
aI28
aI29
aI3
aI30
aI31
aI32
aI33
aI34
aI35
aI36
aI37
aI38
aI39
aI4
aI40
aI41
aI42
aI43
aI44
aI45
aI46
aI47
aI48
aI49
aI5
aI50
aI51
aI52
aI53
aI54
aI55
aI56
aI57
aI58
aI59
aI6
aI60
aI61
aI62
aI63
aI64
aI65
aI66
aI67
asI2
(lp48
I68
aI69
aI7
aI70
aI71
aI72
aI73
aI74
aI75
aI76
aI77
aI78
aI79
aI8
aI80
aI81
aI82
aI83
aI84
aI85
aI86
aI87
aI88
aI89
aI9
aI90
aI91
aI92
aI93
aI94
aI95
aI96
aI97
aI98
aI99
asssS'crab'
p49
(dp50
S'resubmissions'
p51
I0
sS'datetime'
p52
NsS'jobs_left'
p53
(lp54
sS'requestname'
p55
S'TTJets_SingleLeptFromTbar_TuneCUETP8M1_13TeV-madgraphMLM-pythia8_RunIISummer16MiniAODv2-PUMor_ext1'
p56
sS'taskdir'
p57
S'babies/babies_TTJets_SingleLeptFromTbar_TuneCUETP8M1_13TeV-madgraphMLM-pythia8_RunIISummer16MiniAODv2-PUMor_ext1_AllPF'
p58
sS'outputdir'
p59
NsS'jobs_left_tail'
p60
(lp61
ssS'shortname'
p62
S'TTJets_SingleLeptFromTbar_TuneCUETP8M1_13TeV-madgraphMLM-pythia8_RunIISummer16MiniAODv2-PUMoriond17_80X_mcRun2_asymptotic_2016_TrancheIV_v6_ext1-v1'
p63
sS'xsec'
p64
NsS'type'
p65
S'BABY'
p66
sS'checks'
p67
(dp68
sS'sparms'
p69
(lp70
sS'status'
p71
S'done'
p72
sS'ijob_to_miniaod'
p73
(dp74
sS'cms3tag'
p75
VCMS3_V08-00-16
p76
sS'specialdir'
p77
g8
sS'user'
p78
S'dpgilber'
p79
sS'efact'
p80
NsS'baby'
p81
(dp82
S'condor_done'
p83
I270
sS'outputdir_pattern'
p84
S'/hadoop/cms/store/user/dpgilber/AutoTwopler_babies/${ANALYSIS}_${BABY_TAG}/${SHORTNAME}/'
p85
sS'user_executable'
p86
S'/home/users/dpgilber/MT2AnalysisEdit/babymaker/batchsubmit/job_input/wrapper_auto.sh'
p87
sg5
g6
sS'scramarch'
p88
S'slc6_amd64_gcc530'
p89
sS'sweepRoot_script'
p90
S'/home/users/dpgilber/MT2AnalysisEdit/babymaker/batchsubmit//babies/sweepRoot.sh'
p91
sS'executable_script'
p92
S'/home/users/dpgilber/MT2AnalysisEdit/babymaker/batchsubmit//babies/baby_ducks.sh'
p93
sg9
S'/hadoop/cms/store/user/dpgilber/AutoTwopler_babies/MT2_AllPF/TTJets_SingleLeptFromTbar_TuneCUETP8M1_13TeV-madgraphMLM-pythia8_RunIISummer16MiniAODv2-PUMoriond17_80X_mcRun2_asymptotic_2016_TrancheIV_v6_ext1-v1/'
p94
sS'total'
p95
I270
sS'nevents'
p96
I-1
sS'output_names_nosplit'
p97
S'output.root,skim.root,skim_rphi.root'
p98
sS'imerged'
p99
(lp100
I1
aI2
aI3
aI4
aI5
aI6
aI7
aI8
aI9
aI10
aI11
aI12
aI13
aI14
aI15
aI16
aI17
aI18
aI19
aI20
aI21
aI22
aI23
aI24
aI25
aI26
aI27
aI28
aI29
aI30
aI31
aI32
aI33
aI34
aI35
aI36
aI37
aI38
aI39
aI40
aI41
aI42
aI43
aI44
aI45
aI46
aI47
aI48
aI49
aI50
aI51
aI52
aI53
aI54
aI55
aI56
aI57
aI58
aI59
aI60
aI61
aI62
aI63
aI64
aI65
aI66
aI67
aI68
aI69
aI70
aI71
aI72
aI73
aI74
aI75
aI76
aI77
aI78
aI79
aI80
aI81
aI82
aI83
aI84
aI85
aI86
aI87
aI88
aI89
aI90
aI91
aI92
aI93
aI94
aI95
aI96
aI97
aI98
aI99
aI100
aI101
aI102
aI103
aI104
aI105
aI106
aI107
aI108
aI109
aI110
aI111
aI112
aI113
aI114
aI115
aI116
aI117
aI118
aI119
aI120
aI121
aI122
aI123
aI124
aI125
aI126
aI127
aI128
aI129
aI130
aI131
aI132
aI133
aI134
aI135
aI136
aI137
aI138
aI139
aI140
aI141
aI142
aI143
aI144
aI145
aI146
aI147
aI148
aI149
aI150
aI151
aI152
aI153
aI154
aI155
aI156
aI157
aI158
aI159
aI160
aI161
aI162
aI163
aI164
aI165
aI166
aI167
aI168
aI169
aI170
aI171
aI172
aI173
aI174
aI175
aI176
aI177
aI178
aI179
aI180
aI181
aI182
aI183
aI184
aI185
aI186
aI187
aI188
aI189
aI190
aI191
aI192
aI193
aI194
aI195
aI196
aI197
aI198
aI199
aI200
aI201
aI202
aI204
aI205
aI206
aI207
aI208
aI209
aI210
aI211
aI212
aI213
aI214
aI215
aI216
aI217
aI218
aI219
aI220
aI221
aI222
aI223
aI224
aI225
aI226
aI227
aI228
aI229
aI230
aI231
aI232
aI233
aI234
aI235
aI236
aI237
aI238
aI239
aI240
aI241
aI242
aI243
aI244
aI245
aI246
aI247
aI248
aI249
aI250
aI251
aI252
aI253
aI254
aI255
aI256
aI257
aI258
aI259
aI260
aI261
aI262
aI263
aI264
aI265
aI266
aI267
aI268
aI269
aI270
aI271
asS'sweepRooted'
p101
I270
sS'exe_args'
p102
(lp103
g8
asS'merged_dir'
p104
S'/hadoop/cms/store/user/dpgilber/AutoTwopler_babies/merged//MT2/AllPF/'
p105
sS'user_package'
p106
S'/home/users/dpgilber/MT2AnalysisEdit/babymaker/batchsubmit/job_input/package.tar.gz'
p107
sS'exe_args_nosplit'
p108
g8
sS'running'
p109
I0
sS'output_names'
p110
(lp111
S'output.root'
p112
aS'skim.root'
p113
aS'skim_rphi.root'
p114
asS'package'
p115
S'/home/users/dpgilber/MT2AnalysisEdit/babymaker/batchsubmit//babies/package.tar.gz'
p116
sS'cmsswver'
p117
S'CMSSW_8_0_21'
p118
sS'have_set_inputs'
p119
I01
sS'analysis'
p120
S'MT2'
p121
sS'merging_script'
p122
S'/home/users/dpgilber/MT2AnalysisEdit/babymaker/batchsubmit//babies/merging_script.sh'
p123
sS'idle'
p124
I0
sS'baby_tag'
p125
S'AllPF'
p126
sS'imerged_swept'
p127
(lp128
I113
aI122
aI100
aI118
aI1
aI261
aI108
aI140
aI110
aI154
aI26
aI31
aI160
aI35
aI164
aI40
aI171
aI45
aI49
aI180
aI189
aI198
aI205
aI206
aI79
aI82
aI230
aI104
aI105
aI107
aI236
aI237
aI238
aI112
aI119
aI248
aI250
aI123
aI3
aI4
aI6
aI9
aI10
aI11
aI12
aI13
aI14
aI15
aI16
aI17
aI18
aI19
aI20
aI21
aI22
aI23
aI24
aI25
aI28
aI29
aI32
aI33
aI34
aI36
aI37
aI38
aI39
aI41
aI43
aI44
aI46
aI47
aI48
aI50
aI51
aI52
aI53
aI54
aI55
aI56
aI57
aI59
aI60
aI62
aI64
aI65
aI67
aI71
aI72
aI74
aI75
aI77
aI80
aI81
aI83
aI84
aI85
aI86
aI89
aI90
aI91
aI92
aI93
aI97
aI98
aI99
aI101
aI102
aI103
aI106
aI109
aI111
aI114
aI115
aI116
aI117
aI120
aI121
aI124
aI125
aI126
aI127
aI128
aI129
aI130
aI131
aI132
aI133
aI134
aI135
aI136
aI137
aI138
aI139
aI141
aI142
aI143
aI144
aI145
aI146
aI147
aI148
aI149
aI150
aI151
aI152
aI153
aI155
aI156
aI157
aI158
aI159
aI161
aI162
aI163
aI165
aI166
aI167
aI168
aI169
aI170
aI172
aI173
aI174
aI175
aI176
aI177
aI178
aI179
aI181
aI182
aI183
aI184
aI185
aI186
aI187
aI188
aI190
aI191
aI192
aI193
aI194
aI195
aI196
aI197
aI199
aI200
aI201
aI202
aI207
aI208
aI209
aI210
aI211
aI212
aI214
aI215
aI216
aI217
aI219
aI220
aI221
aI223
aI224
aI225
aI228
aI229
aI231
aI232
aI233
aI234
aI235
aI239
aI240
aI244
aI245
aI246
aI247
aI249
aI251
aI252
aI253
aI254
aI255
aI256
aI257
aI258
aI259
aI262
aI263
aI266
aI267
aI268
aI269
aI270
aI2
aI260
aI5
aI7
aI8
aI265
aI271
aI27
aI30
aI42
aI264
aI222
aI58
aI61
aI63
aI66
aI68
aI69
aI70
aI73
aI76
aI78
aI213
aI87
aI88
aI218
aI94
aI95
aI96
aI226
aI227
aI241
aI242
aI243
aI204
asS'input_filenames'
p129
(lp130
V/hadoop/cms/store/group/snt/run2_moriond17/TTJets_SingleLeptFromTbar_TuneCUETP8M1_13TeV-madgraphMLM-pythia8_RunIISummer16MiniAODv2-PUMoriond17_80X_mcRun2_asymptotic_2016_TrancheIV_v6_ext1-v1/V08-00-16/merged_ntuple_1.root
p131
aV/hadoop/cms/store/group/snt/run2_moriond17/TTJets_SingleLeptFromTbar_TuneCUETP8M1_13TeV-madgraphMLM-pythia8_RunIISummer16MiniAODv2-PUMoriond17_80X_mcRun2_asymptotic_2016_TrancheIV_v6_ext1-v1/V08-00-16/merged_ntuple_10.root
p132
aV/hadoop/cms/store/group/snt/run2_moriond17/TTJets_SingleLeptFromTbar_TuneCUETP8M1_13TeV-madgraphMLM-pythia8_RunIISummer16MiniAODv2-PUMoriond17_80X_mcRun2_asymptotic_2016_TrancheIV_v6_ext1-v1/V08-00-16/merged_ntuple_100.root
p133
aV/hadoop/cms/store/group/snt/run2_moriond17/TTJets_SingleLeptFromTbar_TuneCUETP8M1_13TeV-madgraphMLM-pythia8_RunIISummer16MiniAODv2-PUMoriond17_80X_mcRun2_asymptotic_2016_TrancheIV_v6_ext1-v1/V08-00-16/merged_ntuple_101.root
p134
aV/hadoop/cms/store/group/snt/run2_moriond17/TTJets_SingleLeptFromTbar_TuneCUETP8M1_13TeV-madgraphMLM-pythia8_RunIISummer16MiniAODv2-PUMoriond17_80X_mcRun2_asymptotic_2016_TrancheIV_v6_ext1-v1/V08-00-16/merged_ntuple_102.root
p135
aV/hadoop/cms/store/group/snt/run2_moriond17/TTJets_SingleLeptFromTbar_TuneCUETP8M1_13TeV-madgraphMLM-pythia8_RunIISummer16MiniAODv2-PUMoriond17_80X_mcRun2_asymptotic_2016_TrancheIV_v6_ext1-v1/V08-00-16/merged_ntuple_103.root
p136
aV/hadoop/cms/store/group/snt/run2_moriond17/TTJets_SingleLeptFromTbar_TuneCUETP8M1_13TeV-madgraphMLM-pythia8_RunIISummer16MiniAODv2-PUMoriond17_80X_mcRun2_asymptotic_2016_TrancheIV_v6_ext1-v1/V08-00-16/merged_ntuple_104.root
p137
aV/hadoop/cms/store/group/snt/run2_moriond17/TTJets_SingleLeptFromTbar_TuneCUETP8M1_13TeV-madgraphMLM-pythia8_RunIISummer16MiniAODv2-PUMoriond17_80X_mcRun2_asymptotic_2016_TrancheIV_v6_ext1-v1/V08-00-16/merged_ntuple_105.root
p138
aV/hadoop/cms/store/group/snt/run2_moriond17/TTJets_SingleLeptFromTbar_TuneCUETP8M1_13TeV-madgraphMLM-pythia8_RunIISummer16MiniAODv2-PUMoriond17_80X_mcRun2_asymptotic_2016_TrancheIV_v6_ext1-v1/V08-00-16/merged_ntuple_106.root
p139
aV/hadoop/cms/store/group/snt/run2_moriond17/TTJets_SingleLeptFromTbar_TuneCUETP8M1_13TeV-madgraphMLM-pythia8_RunIISummer16MiniAODv2-PUMoriond17_80X_mcRun2_asymptotic_2016_TrancheIV_v6_ext1-v1/V08-00-16/merged_ntuple_107.root
p140
aV/hadoop/cms/store/group/snt/run2_moriond17/TTJets_SingleLeptFromTbar_TuneCUETP8M1_13TeV-madgraphMLM-pythia8_RunIISummer16MiniAODv2-PUMoriond17_80X_mcRun2_asymptotic_2016_TrancheIV_v6_ext1-v1/V08-00-16/merged_ntuple_108.root
p141
aV/hadoop/cms/store/group/snt/run2_moriond17/TTJets_SingleLeptFromTbar_TuneCUETP8M1_13TeV-madgraphMLM-pythia8_RunIISummer16MiniAODv2-PUMoriond17_80X_mcRun2_asymptotic_2016_TrancheIV_v6_ext1-v1/V08-00-16/merged_ntuple_109.root
p142
aV/hadoop/cms/store/group/snt/run2_moriond17/TTJets_SingleLeptFromTbar_TuneCUETP8M1_13TeV-madgraphMLM-pythia8_RunIISummer16MiniAODv2-PUMoriond17_80X_mcRun2_asymptotic_2016_TrancheIV_v6_ext1-v1/V08-00-16/merged_ntuple_11.root
p143
aV/hadoop/cms/store/group/snt/run2_moriond17/TTJets_SingleLeptFromTbar_TuneCUETP8M1_13TeV-madgraphMLM-pythia8_RunIISummer16MiniAODv2-PUMoriond17_80X_mcRun2_asymptotic_2016_TrancheIV_v6_ext1-v1/V08-00-16/merged_ntuple_110.root
p144
aV/hadoop/cms/store/group/snt/run2_moriond17/TTJets_SingleLeptFromTbar_TuneCUETP8M1_13TeV-madgraphMLM-pythia8_RunIISummer16MiniAODv2-PUMoriond17_80X_mcRun2_asymptotic_2016_TrancheIV_v6_ext1-v1/V08-00-16/merged_ntuple_111.root
p145
aV/hadoop/cms/store/group/snt/run2_moriond17/TTJets_SingleLeptFromTbar_TuneCUETP8M1_13TeV-madgraphMLM-pythia8_RunIISummer16MiniAODv2-PUMoriond17_80X_mcRun2_asymptotic_2016_TrancheIV_v6_ext1-v1/V08-00-16/merged_ntuple_112.root
p146
aV/hadoop/cms/store/group/snt/run2_moriond17/TTJets_SingleLeptFromTbar_TuneCUETP8M1_13TeV-madgraphMLM-pythia8_RunIISummer16MiniAODv2-PUMoriond17_80X_mcRun2_asymptotic_2016_TrancheIV_v6_ext1-v1/V08-00-16/merged_ntuple_113.root
p147
aV/hadoop/cms/store/group/snt/run2_moriond17/TTJets_SingleLeptFromTbar_TuneCUETP8M1_13TeV-madgraphMLM-pythia8_RunIISummer16MiniAODv2-PUMoriond17_80X_mcRun2_asymptotic_2016_TrancheIV_v6_ext1-v1/V08-00-16/merged_ntuple_114.root
p148
aV/hadoop/cms/store/group/snt/run2_moriond17/TTJets_SingleLeptFromTbar_TuneCUETP8M1_13TeV-madgraphMLM-pythia8_RunIISummer16MiniAODv2-PUMoriond17_80X_mcRun2_asymptotic_2016_TrancheIV_v6_ext1-v1/V08-00-16/merged_ntuple_115.root
p149
aV/hadoop/cms/store/group/snt/run2_moriond17/TTJets_SingleLeptFromTbar_TuneCUETP8M1_13TeV-madgraphMLM-pythia8_RunIISummer16MiniAODv2-PUMoriond17_80X_mcRun2_asymptotic_2016_TrancheIV_v6_ext1-v1/V08-00-16/merged_ntuple_116.root
p150
aV/hadoop/cms/store/group/snt/run2_moriond17/TTJets_SingleLeptFromTbar_TuneCUETP8M1_13TeV-madgraphMLM-pythia8_RunIISummer16MiniAODv2-PUMoriond17_80X_mcRun2_asymptotic_2016_TrancheIV_v6_ext1-v1/V08-00-16/merged_ntuple_117.root
p151
aV/hadoop/cms/store/group/snt/run2_moriond17/TTJets_SingleLeptFromTbar_TuneCUETP8M1_13TeV-madgraphMLM-pythia8_RunIISummer16MiniAODv2-PUMoriond17_80X_mcRun2_asymptotic_2016_TrancheIV_v6_ext1-v1/V08-00-16/merged_ntuple_118.root
p152
aV/hadoop/cms/store/group/snt/run2_moriond17/TTJets_SingleLeptFromTbar_TuneCUETP8M1_13TeV-madgraphMLM-pythia8_RunIISummer16MiniAODv2-PUMoriond17_80X_mcRun2_asymptotic_2016_TrancheIV_v6_ext1-v1/V08-00-16/merged_ntuple_119.root
p153
aV/hadoop/cms/store/group/snt/run2_moriond17/TTJets_SingleLeptFromTbar_TuneCUETP8M1_13TeV-madgraphMLM-pythia8_RunIISummer16MiniAODv2-PUMoriond17_80X_mcRun2_asymptotic_2016_TrancheIV_v6_ext1-v1/V08-00-16/merged_ntuple_12.root
p154
aV/hadoop/cms/store/group/snt/run2_moriond17/TTJets_SingleLeptFromTbar_TuneCUETP8M1_13TeV-madgraphMLM-pythia8_RunIISummer16MiniAODv2-PUMoriond17_80X_mcRun2_asymptotic_2016_TrancheIV_v6_ext1-v1/V08-00-16/merged_ntuple_120.root
p155
aV/hadoop/cms/store/group/snt/run2_moriond17/TTJets_SingleLeptFromTbar_TuneCUETP8M1_13TeV-madgraphMLM-pythia8_RunIISummer16MiniAODv2-PUMoriond17_80X_mcRun2_asymptotic_2016_TrancheIV_v6_ext1-v1/V08-00-16/merged_ntuple_121.root
p156
aV/hadoop/cms/store/group/snt/run2_moriond17/TTJets_SingleLeptFromTbar_TuneCUETP8M1_13TeV-madgraphMLM-pythia8_RunIISummer16MiniAODv2-PUMoriond17_80X_mcRun2_asymptotic_2016_TrancheIV_v6_ext1-v1/V08-00-16/merged_ntuple_122.root
p157
aV/hadoop/cms/store/group/snt/run2_moriond17/TTJets_SingleLeptFromTbar_TuneCUETP8M1_13TeV-madgraphMLM-pythia8_RunIISummer16MiniAODv2-PUMoriond17_80X_mcRun2_asymptotic_2016_TrancheIV_v6_ext1-v1/V08-00-16/merged_ntuple_123.root
p158
aV/hadoop/cms/store/group/snt/run2_moriond17/TTJets_SingleLeptFromTbar_TuneCUETP8M1_13TeV-madgraphMLM-pythia8_RunIISummer16MiniAODv2-PUMoriond17_80X_mcRun2_asymptotic_2016_TrancheIV_v6_ext1-v1/V08-00-16/merged_ntuple_124.root
p159
aV/hadoop/cms/store/group/snt/run2_moriond17/TTJets_SingleLeptFromTbar_TuneCUETP8M1_13TeV-madgraphMLM-pythia8_RunIISummer16MiniAODv2-PUMoriond17_80X_mcRun2_asymptotic_2016_TrancheIV_v6_ext1-v1/V08-00-16/merged_ntuple_125.root
p160
aV/hadoop/cms/store/group/snt/run2_moriond17/TTJets_SingleLeptFromTbar_TuneCUETP8M1_13TeV-madgraphMLM-pythia8_RunIISummer16MiniAODv2-PUMoriond17_80X_mcRun2_asymptotic_2016_TrancheIV_v6_ext1-v1/V08-00-16/merged_ntuple_126.root
p161
aV/hadoop/cms/store/group/snt/run2_moriond17/TTJets_SingleLeptFromTbar_TuneCUETP8M1_13TeV-madgraphMLM-pythia8_RunIISummer16MiniAODv2-PUMoriond17_80X_mcRun2_asymptotic_2016_TrancheIV_v6_ext1-v1/V08-00-16/merged_ntuple_127.root
p162
aV/hadoop/cms/store/group/snt/run2_moriond17/TTJets_SingleLeptFromTbar_TuneCUETP8M1_13TeV-madgraphMLM-pythia8_RunIISummer16MiniAODv2-PUMoriond17_80X_mcRun2_asymptotic_2016_TrancheIV_v6_ext1-v1/V08-00-16/merged_ntuple_128.root
p163
aV/hadoop/cms/store/group/snt/run2_moriond17/TTJets_SingleLeptFromTbar_TuneCUETP8M1_13TeV-madgraphMLM-pythia8_RunIISummer16MiniAODv2-PUMoriond17_80X_mcRun2_asymptotic_2016_TrancheIV_v6_ext1-v1/V08-00-16/merged_ntuple_129.root
p164
aV/hadoop/cms/store/group/snt/run2_moriond17/TTJets_SingleLeptFromTbar_TuneCUETP8M1_13TeV-madgraphMLM-pythia8_RunIISummer16MiniAODv2-PUMoriond17_80X_mcRun2_asymptotic_2016_TrancheIV_v6_ext1-v1/V08-00-16/merged_ntuple_13.root
p165
aV/hadoop/cms/store/group/snt/run2_moriond17/TTJets_SingleLeptFromTbar_TuneCUETP8M1_13TeV-madgraphMLM-pythia8_RunIISummer16MiniAODv2-PUMoriond17_80X_mcRun2_asymptotic_2016_TrancheIV_v6_ext1-v1/V08-00-16/merged_ntuple_130.root
p166
aV/hadoop/cms/store/group/snt/run2_moriond17/TTJets_SingleLeptFromTbar_TuneCUETP8M1_13TeV-madgraphMLM-pythia8_RunIISummer16MiniAODv2-PUMoriond17_80X_mcRun2_asymptotic_2016_TrancheIV_v6_ext1-v1/V08-00-16/merged_ntuple_131.root
p167
aV/hadoop/cms/store/group/snt/run2_moriond17/TTJets_SingleLeptFromTbar_TuneCUETP8M1_13TeV-madgraphMLM-pythia8_RunIISummer16MiniAODv2-PUMoriond17_80X_mcRun2_asymptotic_2016_TrancheIV_v6_ext1-v1/V08-00-16/merged_ntuple_132.root
p168
aV/hadoop/cms/store/group/snt/run2_moriond17/TTJets_SingleLeptFromTbar_TuneCUETP8M1_13TeV-madgraphMLM-pythia8_RunIISummer16MiniAODv2-PUMoriond17_80X_mcRun2_asymptotic_2016_TrancheIV_v6_ext1-v1/V08-00-16/merged_ntuple_133.root
p169
aV/hadoop/cms/store/group/snt/run2_moriond17/TTJets_SingleLeptFromTbar_TuneCUETP8M1_13TeV-madgraphMLM-pythia8_RunIISummer16MiniAODv2-PUMoriond17_80X_mcRun2_asymptotic_2016_TrancheIV_v6_ext1-v1/V08-00-16/merged_ntuple_134.root
p170
aV/hadoop/cms/store/group/snt/run2_moriond17/TTJets_SingleLeptFromTbar_TuneCUETP8M1_13TeV-madgraphMLM-pythia8_RunIISummer16MiniAODv2-PUMoriond17_80X_mcRun2_asymptotic_2016_TrancheIV_v6_ext1-v1/V08-00-16/merged_ntuple_135.root
p171
aV/hadoop/cms/store/group/snt/run2_moriond17/TTJets_SingleLeptFromTbar_TuneCUETP8M1_13TeV-madgraphMLM-pythia8_RunIISummer16MiniAODv2-PUMoriond17_80X_mcRun2_asymptotic_2016_TrancheIV_v6_ext1-v1/V08-00-16/merged_ntuple_136.root
p172
aV/hadoop/cms/store/group/snt/run2_moriond17/TTJets_SingleLeptFromTbar_TuneCUETP8M1_13TeV-madgraphMLM-pythia8_RunIISummer16MiniAODv2-PUMoriond17_80X_mcRun2_asymptotic_2016_TrancheIV_v6_ext1-v1/V08-00-16/merged_ntuple_137.root
p173
aV/hadoop/cms/store/group/snt/run2_moriond17/TTJets_SingleLeptFromTbar_TuneCUETP8M1_13TeV-madgraphMLM-pythia8_RunIISummer16MiniAODv2-PUMoriond17_80X_mcRun2_asymptotic_2016_TrancheIV_v6_ext1-v1/V08-00-16/merged_ntuple_138.root
p174
aV/hadoop/cms/store/group/snt/run2_moriond17/TTJets_SingleLeptFromTbar_TuneCUETP8M1_13TeV-madgraphMLM-pythia8_RunIISummer16MiniAODv2-PUMoriond17_80X_mcRun2_asymptotic_2016_TrancheIV_v6_ext1-v1/V08-00-16/merged_ntuple_139.root
p175
aV/hadoop/cms/store/group/snt/run2_moriond17/TTJets_SingleLeptFromTbar_TuneCUETP8M1_13TeV-madgraphMLM-pythia8_RunIISummer16MiniAODv2-PUMoriond17_80X_mcRun2_asymptotic_2016_TrancheIV_v6_ext1-v1/V08-00-16/merged_ntuple_14.root
p176
aV/hadoop/cms/store/group/snt/run2_moriond17/TTJets_SingleLeptFromTbar_TuneCUETP8M1_13TeV-madgraphMLM-pythia8_RunIISummer16MiniAODv2-PUMoriond17_80X_mcRun2_asymptotic_2016_TrancheIV_v6_ext1-v1/V08-00-16/merged_ntuple_140.root
p177
aV/hadoop/cms/store/group/snt/run2_moriond17/TTJets_SingleLeptFromTbar_TuneCUETP8M1_13TeV-madgraphMLM-pythia8_RunIISummer16MiniAODv2-PUMoriond17_80X_mcRun2_asymptotic_2016_TrancheIV_v6_ext1-v1/V08-00-16/merged_ntuple_141.root
p178
aV/hadoop/cms/store/group/snt/run2_moriond17/TTJets_SingleLeptFromTbar_TuneCUETP8M1_13TeV-madgraphMLM-pythia8_RunIISummer16MiniAODv2-PUMoriond17_80X_mcRun2_asymptotic_2016_TrancheIV_v6_ext1-v1/V08-00-16/merged_ntuple_142.root
p179
aV/hadoop/cms/store/group/snt/run2_moriond17/TTJets_SingleLeptFromTbar_TuneCUETP8M1_13TeV-madgraphMLM-pythia8_RunIISummer16MiniAODv2-PUMoriond17_80X_mcRun2_asymptotic_2016_TrancheIV_v6_ext1-v1/V08-00-16/merged_ntuple_143.root
p180
aV/hadoop/cms/store/group/snt/run2_moriond17/TTJets_SingleLeptFromTbar_TuneCUETP8M1_13TeV-madgraphMLM-pythia8_RunIISummer16MiniAODv2-PUMoriond17_80X_mcRun2_asymptotic_2016_TrancheIV_v6_ext1-v1/V08-00-16/merged_ntuple_144.root
p181
aV/hadoop/cms/store/group/snt/run2_moriond17/TTJets_SingleLeptFromTbar_TuneCUETP8M1_13TeV-madgraphMLM-pythia8_RunIISummer16MiniAODv2-PUMoriond17_80X_mcRun2_asymptotic_2016_TrancheIV_v6_ext1-v1/V08-00-16/merged_ntuple_145.root
p182
aV/hadoop/cms/store/group/snt/run2_moriond17/TTJets_SingleLeptFromTbar_TuneCUETP8M1_13TeV-madgraphMLM-pythia8_RunIISummer16MiniAODv2-PUMoriond17_80X_mcRun2_asymptotic_2016_TrancheIV_v6_ext1-v1/V08-00-16/merged_ntuple_146.root
p183
aV/hadoop/cms/store/group/snt/run2_moriond17/TTJets_SingleLeptFromTbar_TuneCUETP8M1_13TeV-madgraphMLM-pythia8_RunIISummer16MiniAODv2-PUMoriond17_80X_mcRun2_asymptotic_2016_TrancheIV_v6_ext1-v1/V08-00-16/merged_ntuple_147.root
p184
aV/hadoop/cms/store/group/snt/run2_moriond17/TTJets_SingleLeptFromTbar_TuneCUETP8M1_13TeV-madgraphMLM-pythia8_RunIISummer16MiniAODv2-PUMoriond17_80X_mcRun2_asymptotic_2016_TrancheIV_v6_ext1-v1/V08-00-16/merged_ntuple_148.root
p185
aV/hadoop/cms/store/group/snt/run2_moriond17/TTJets_SingleLeptFromTbar_TuneCUETP8M1_13TeV-madgraphMLM-pythia8_RunIISummer16MiniAODv2-PUMoriond17_80X_mcRun2_asymptotic_2016_TrancheIV_v6_ext1-v1/V08-00-16/merged_ntuple_149.root
p186
aV/hadoop/cms/store/group/snt/run2_moriond17/TTJets_SingleLeptFromTbar_TuneCUETP8M1_13TeV-madgraphMLM-pythia8_RunIISummer16MiniAODv2-PUMoriond17_80X_mcRun2_asymptotic_2016_TrancheIV_v6_ext1-v1/V08-00-16/merged_ntuple_15.root
p187
aV/hadoop/cms/store/group/snt/run2_moriond17/TTJets_SingleLeptFromTbar_TuneCUETP8M1_13TeV-madgraphMLM-pythia8_RunIISummer16MiniAODv2-PUMoriond17_80X_mcRun2_asymptotic_2016_TrancheIV_v6_ext1-v1/V08-00-16/merged_ntuple_150.root
p188
aV/hadoop/cms/store/group/snt/run2_moriond17/TTJets_SingleLeptFromTbar_TuneCUETP8M1_13TeV-madgraphMLM-pythia8_RunIISummer16MiniAODv2-PUMoriond17_80X_mcRun2_asymptotic_2016_TrancheIV_v6_ext1-v1/V08-00-16/merged_ntuple_151.root
p189
aV/hadoop/cms/store/group/snt/run2_moriond17/TTJets_SingleLeptFromTbar_TuneCUETP8M1_13TeV-madgraphMLM-pythia8_RunIISummer16MiniAODv2-PUMoriond17_80X_mcRun2_asymptotic_2016_TrancheIV_v6_ext1-v1/V08-00-16/merged_ntuple_152.root
p190
aV/hadoop/cms/store/group/snt/run2_moriond17/TTJets_SingleLeptFromTbar_TuneCUETP8M1_13TeV-madgraphMLM-pythia8_RunIISummer16MiniAODv2-PUMoriond17_80X_mcRun2_asymptotic_2016_TrancheIV_v6_ext1-v1/V08-00-16/merged_ntuple_153.root
p191
aV/hadoop/cms/store/group/snt/run2_moriond17/TTJets_SingleLeptFromTbar_TuneCUETP8M1_13TeV-madgraphMLM-pythia8_RunIISummer16MiniAODv2-PUMoriond17_80X_mcRun2_asymptotic_2016_TrancheIV_v6_ext1-v1/V08-00-16/merged_ntuple_154.root
p192
aV/hadoop/cms/store/group/snt/run2_moriond17/TTJets_SingleLeptFromTbar_TuneCUETP8M1_13TeV-madgraphMLM-pythia8_RunIISummer16MiniAODv2-PUMoriond17_80X_mcRun2_asymptotic_2016_TrancheIV_v6_ext1-v1/V08-00-16/merged_ntuple_155.root
p193
aV/hadoop/cms/store/group/snt/run2_moriond17/TTJets_SingleLeptFromTbar_TuneCUETP8M1_13TeV-madgraphMLM-pythia8_RunIISummer16MiniAODv2-PUMoriond17_80X_mcRun2_asymptotic_2016_TrancheIV_v6_ext1-v1/V08-00-16/merged_ntuple_156.root
p194
aV/hadoop/cms/store/group/snt/run2_moriond17/TTJets_SingleLeptFromTbar_TuneCUETP8M1_13TeV-madgraphMLM-pythia8_RunIISummer16MiniAODv2-PUMoriond17_80X_mcRun2_asymptotic_2016_TrancheIV_v6_ext1-v1/V08-00-16/merged_ntuple_157.root
p195
aV/hadoop/cms/store/group/snt/run2_moriond17/TTJets_SingleLeptFromTbar_TuneCUETP8M1_13TeV-madgraphMLM-pythia8_RunIISummer16MiniAODv2-PUMoriond17_80X_mcRun2_asymptotic_2016_TrancheIV_v6_ext1-v1/V08-00-16/merged_ntuple_158.root
p196
aV/hadoop/cms/store/group/snt/run2_moriond17/TTJets_SingleLeptFromTbar_TuneCUETP8M1_13TeV-madgraphMLM-pythia8_RunIISummer16MiniAODv2-PUMoriond17_80X_mcRun2_asymptotic_2016_TrancheIV_v6_ext1-v1/V08-00-16/merged_ntuple_159.root
p197
aV/hadoop/cms/store/group/snt/run2_moriond17/TTJets_SingleLeptFromTbar_TuneCUETP8M1_13TeV-madgraphMLM-pythia8_RunIISummer16MiniAODv2-PUMoriond17_80X_mcRun2_asymptotic_2016_TrancheIV_v6_ext1-v1/V08-00-16/merged_ntuple_16.root
p198
aV/hadoop/cms/store/group/snt/run2_moriond17/TTJets_SingleLeptFromTbar_TuneCUETP8M1_13TeV-madgraphMLM-pythia8_RunIISummer16MiniAODv2-PUMoriond17_80X_mcRun2_asymptotic_2016_TrancheIV_v6_ext1-v1/V08-00-16/merged_ntuple_160.root
p199
aV/hadoop/cms/store/group/snt/run2_moriond17/TTJets_SingleLeptFromTbar_TuneCUETP8M1_13TeV-madgraphMLM-pythia8_RunIISummer16MiniAODv2-PUMoriond17_80X_mcRun2_asymptotic_2016_TrancheIV_v6_ext1-v1/V08-00-16/merged_ntuple_161.root
p200
aV/hadoop/cms/store/group/snt/run2_moriond17/TTJets_SingleLeptFromTbar_TuneCUETP8M1_13TeV-madgraphMLM-pythia8_RunIISummer16MiniAODv2-PUMoriond17_80X_mcRun2_asymptotic_2016_TrancheIV_v6_ext1-v1/V08-00-16/merged_ntuple_162.root
p201
aV/hadoop/cms/store/group/snt/run2_moriond17/TTJets_SingleLeptFromTbar_TuneCUETP8M1_13TeV-madgraphMLM-pythia8_RunIISummer16MiniAODv2-PUMoriond17_80X_mcRun2_asymptotic_2016_TrancheIV_v6_ext1-v1/V08-00-16/merged_ntuple_163.root
p202
aV/hadoop/cms/store/group/snt/run2_moriond17/TTJets_SingleLeptFromTbar_TuneCUETP8M1_13TeV-madgraphMLM-pythia8_RunIISummer16MiniAODv2-PUMoriond17_80X_mcRun2_asymptotic_2016_TrancheIV_v6_ext1-v1/V08-00-16/merged_ntuple_164.root
p203
aV/hadoop/cms/store/group/snt/run2_moriond17/TTJets_SingleLeptFromTbar_TuneCUETP8M1_13TeV-madgraphMLM-pythia8_RunIISummer16MiniAODv2-PUMoriond17_80X_mcRun2_asymptotic_2016_TrancheIV_v6_ext1-v1/V08-00-16/merged_ntuple_165.root
p204
aV/hadoop/cms/store/group/snt/run2_moriond17/TTJets_SingleLeptFromTbar_TuneCUETP8M1_13TeV-madgraphMLM-pythia8_RunIISummer16MiniAODv2-PUMoriond17_80X_mcRun2_asymptotic_2016_TrancheIV_v6_ext1-v1/V08-00-16/merged_ntuple_166.root
p205
aV/hadoop/cms/store/group/snt/run2_moriond17/TTJets_SingleLeptFromTbar_TuneCUETP8M1_13TeV-madgraphMLM-pythia8_RunIISummer16MiniAODv2-PUMoriond17_80X_mcRun2_asymptotic_2016_TrancheIV_v6_ext1-v1/V08-00-16/merged_ntuple_167.root
p206
aV/hadoop/cms/store/group/snt/run2_moriond17/TTJets_SingleLeptFromTbar_TuneCUETP8M1_13TeV-madgraphMLM-pythia8_RunIISummer16MiniAODv2-PUMoriond17_80X_mcRun2_asymptotic_2016_TrancheIV_v6_ext1-v1/V08-00-16/merged_ntuple_168.root
p207
aV/hadoop/cms/store/group/snt/run2_moriond17/TTJets_SingleLeptFromTbar_TuneCUETP8M1_13TeV-madgraphMLM-pythia8_RunIISummer16MiniAODv2-PUMoriond17_80X_mcRun2_asymptotic_2016_TrancheIV_v6_ext1-v1/V08-00-16/merged_ntuple_169.root
p208
aV/hadoop/cms/store/group/snt/run2_moriond17/TTJets_SingleLeptFromTbar_TuneCUETP8M1_13TeV-madgraphMLM-pythia8_RunIISummer16MiniAODv2-PUMoriond17_80X_mcRun2_asymptotic_2016_TrancheIV_v6_ext1-v1/V08-00-16/merged_ntuple_17.root
p209
aV/hadoop/cms/store/group/snt/run2_moriond17/TTJets_SingleLeptFromTbar_TuneCUETP8M1_13TeV-madgraphMLM-pythia8_RunIISummer16MiniAODv2-PUMoriond17_80X_mcRun2_asymptotic_2016_TrancheIV_v6_ext1-v1/V08-00-16/merged_ntuple_170.root
p210
aV/hadoop/cms/store/group/snt/run2_moriond17/TTJets_SingleLeptFromTbar_TuneCUETP8M1_13TeV-madgraphMLM-pythia8_RunIISummer16MiniAODv2-PUMoriond17_80X_mcRun2_asymptotic_2016_TrancheIV_v6_ext1-v1/V08-00-16/merged_ntuple_171.root
p211
aV/hadoop/cms/store/group/snt/run2_moriond17/TTJets_SingleLeptFromTbar_TuneCUETP8M1_13TeV-madgraphMLM-pythia8_RunIISummer16MiniAODv2-PUMoriond17_80X_mcRun2_asymptotic_2016_TrancheIV_v6_ext1-v1/V08-00-16/merged_ntuple_172.root
p212
aV/hadoop/cms/store/group/snt/run2_moriond17/TTJets_SingleLeptFromTbar_TuneCUETP8M1_13TeV-madgraphMLM-pythia8_RunIISummer16MiniAODv2-PUMoriond17_80X_mcRun2_asymptotic_2016_TrancheIV_v6_ext1-v1/V08-00-16/merged_ntuple_173.root
p213
aV/hadoop/cms/store/group/snt/run2_moriond17/TTJets_SingleLeptFromTbar_TuneCUETP8M1_13TeV-madgraphMLM-pythia8_RunIISummer16MiniAODv2-PUMoriond17_80X_mcRun2_asymptotic_2016_TrancheIV_v6_ext1-v1/V08-00-16/merged_ntuple_174.root
p214
aV/hadoop/cms/store/group/snt/run2_moriond17/TTJets_SingleLeptFromTbar_TuneCUETP8M1_13TeV-madgraphMLM-pythia8_RunIISummer16MiniAODv2-PUMoriond17_80X_mcRun2_asymptotic_2016_TrancheIV_v6_ext1-v1/V08-00-16/merged_ntuple_175.root
p215
aV/hadoop/cms/store/group/snt/run2_moriond17/TTJets_SingleLeptFromTbar_TuneCUETP8M1_13TeV-madgraphMLM-pythia8_RunIISummer16MiniAODv2-PUMoriond17_80X_mcRun2_asymptotic_2016_TrancheIV_v6_ext1-v1/V08-00-16/merged_ntuple_176.root
p216
aV/hadoop/cms/store/group/snt/run2_moriond17/TTJets_SingleLeptFromTbar_TuneCUETP8M1_13TeV-madgraphMLM-pythia8_RunIISummer16MiniAODv2-PUMoriond17_80X_mcRun2_asymptotic_2016_TrancheIV_v6_ext1-v1/V08-00-16/merged_ntuple_177.root
p217
aV/hadoop/cms/store/group/snt/run2_moriond17/TTJets_SingleLeptFromTbar_TuneCUETP8M1_13TeV-madgraphMLM-pythia8_RunIISummer16MiniAODv2-PUMoriond17_80X_mcRun2_asymptotic_2016_TrancheIV_v6_ext1-v1/V08-00-16/merged_ntuple_178.root
p218
aV/hadoop/cms/store/group/snt/run2_moriond17/TTJets_SingleLeptFromTbar_TuneCUETP8M1_13TeV-madgraphMLM-pythia8_RunIISummer16MiniAODv2-PUMoriond17_80X_mcRun2_asymptotic_2016_TrancheIV_v6_ext1-v1/V08-00-16/merged_ntuple_179.root
p219
aV/hadoop/cms/store/group/snt/run2_moriond17/TTJets_SingleLeptFromTbar_TuneCUETP8M1_13TeV-madgraphMLM-pythia8_RunIISummer16MiniAODv2-PUMoriond17_80X_mcRun2_asymptotic_2016_TrancheIV_v6_ext1-v1/V08-00-16/merged_ntuple_18.root
p220
aV/hadoop/cms/store/group/snt/run2_moriond17/TTJets_SingleLeptFromTbar_TuneCUETP8M1_13TeV-madgraphMLM-pythia8_RunIISummer16MiniAODv2-PUMoriond17_80X_mcRun2_asymptotic_2016_TrancheIV_v6_ext1-v1/V08-00-16/merged_ntuple_180.root
p221
aV/hadoop/cms/store/group/snt/run2_moriond17/TTJets_SingleLeptFromTbar_TuneCUETP8M1_13TeV-madgraphMLM-pythia8_RunIISummer16MiniAODv2-PUMoriond17_80X_mcRun2_asymptotic_2016_TrancheIV_v6_ext1-v1/V08-00-16/merged_ntuple_181.root
p222
aV/hadoop/cms/store/group/snt/run2_moriond17/TTJets_SingleLeptFromTbar_TuneCUETP8M1_13TeV-madgraphMLM-pythia8_RunIISummer16MiniAODv2-PUMoriond17_80X_mcRun2_asymptotic_2016_TrancheIV_v6_ext1-v1/V08-00-16/merged_ntuple_182.root
p223
aV/hadoop/cms/store/group/snt/run2_moriond17/TTJets_SingleLeptFromTbar_TuneCUETP8M1_13TeV-madgraphMLM-pythia8_RunIISummer16MiniAODv2-PUMoriond17_80X_mcRun2_asymptotic_2016_TrancheIV_v6_ext1-v1/V08-00-16/merged_ntuple_183.root
p224
aV/hadoop/cms/store/group/snt/run2_moriond17/TTJets_SingleLeptFromTbar_TuneCUETP8M1_13TeV-madgraphMLM-pythia8_RunIISummer16MiniAODv2-PUMoriond17_80X_mcRun2_asymptotic_2016_TrancheIV_v6_ext1-v1/V08-00-16/merged_ntuple_184.root
p225
aV/hadoop/cms/store/group/snt/run2_moriond17/TTJets_SingleLeptFromTbar_TuneCUETP8M1_13TeV-madgraphMLM-pythia8_RunIISummer16MiniAODv2-PUMoriond17_80X_mcRun2_asymptotic_2016_TrancheIV_v6_ext1-v1/V08-00-16/merged_ntuple_185.root
p226
aV/hadoop/cms/store/group/snt/run2_moriond17/TTJets_SingleLeptFromTbar_TuneCUETP8M1_13TeV-madgraphMLM-pythia8_RunIISummer16MiniAODv2-PUMoriond17_80X_mcRun2_asymptotic_2016_TrancheIV_v6_ext1-v1/V08-00-16/merged_ntuple_186.root
p227
aV/hadoop/cms/store/group/snt/run2_moriond17/TTJets_SingleLeptFromTbar_TuneCUETP8M1_13TeV-madgraphMLM-pythia8_RunIISummer16MiniAODv2-PUMoriond17_80X_mcRun2_asymptotic_2016_TrancheIV_v6_ext1-v1/V08-00-16/merged_ntuple_187.root
p228
aV/hadoop/cms/store/group/snt/run2_moriond17/TTJets_SingleLeptFromTbar_TuneCUETP8M1_13TeV-madgraphMLM-pythia8_RunIISummer16MiniAODv2-PUMoriond17_80X_mcRun2_asymptotic_2016_TrancheIV_v6_ext1-v1/V08-00-16/merged_ntuple_188.root
p229
aV/hadoop/cms/store/group/snt/run2_moriond17/TTJets_SingleLeptFromTbar_TuneCUETP8M1_13TeV-madgraphMLM-pythia8_RunIISummer16MiniAODv2-PUMoriond17_80X_mcRun2_asymptotic_2016_TrancheIV_v6_ext1-v1/V08-00-16/merged_ntuple_189.root
p230
aV/hadoop/cms/store/group/snt/run2_moriond17/TTJets_SingleLeptFromTbar_TuneCUETP8M1_13TeV-madgraphMLM-pythia8_RunIISummer16MiniAODv2-PUMoriond17_80X_mcRun2_asymptotic_2016_TrancheIV_v6_ext1-v1/V08-00-16/merged_ntuple_19.root
p231
aV/hadoop/cms/store/group/snt/run2_moriond17/TTJets_SingleLeptFromTbar_TuneCUETP8M1_13TeV-madgraphMLM-pythia8_RunIISummer16MiniAODv2-PUMoriond17_80X_mcRun2_asymptotic_2016_TrancheIV_v6_ext1-v1/V08-00-16/merged_ntuple_190.root
p232
aV/hadoop/cms/store/group/snt/run2_moriond17/TTJets_SingleLeptFromTbar_TuneCUETP8M1_13TeV-madgraphMLM-pythia8_RunIISummer16MiniAODv2-PUMoriond17_80X_mcRun2_asymptotic_2016_TrancheIV_v6_ext1-v1/V08-00-16/merged_ntuple_191.root
p233
aV/hadoop/cms/store/group/snt/run2_moriond17/TTJets_SingleLeptFromTbar_TuneCUETP8M1_13TeV-madgraphMLM-pythia8_RunIISummer16MiniAODv2-PUMoriond17_80X_mcRun2_asymptotic_2016_TrancheIV_v6_ext1-v1/V08-00-16/merged_ntuple_192.root
p234
aV/hadoop/cms/store/group/snt/run2_moriond17/TTJets_SingleLeptFromTbar_TuneCUETP8M1_13TeV-madgraphMLM-pythia8_RunIISummer16MiniAODv2-PUMoriond17_80X_mcRun2_asymptotic_2016_TrancheIV_v6_ext1-v1/V08-00-16/merged_ntuple_193.root
p235
aV/hadoop/cms/store/group/snt/run2_moriond17/TTJets_SingleLeptFromTbar_TuneCUETP8M1_13TeV-madgraphMLM-pythia8_RunIISummer16MiniAODv2-PUMoriond17_80X_mcRun2_asymptotic_2016_TrancheIV_v6_ext1-v1/V08-00-16/merged_ntuple_194.root
p236
aV/hadoop/cms/store/group/snt/run2_moriond17/TTJets_SingleLeptFromTbar_TuneCUETP8M1_13TeV-madgraphMLM-pythia8_RunIISummer16MiniAODv2-PUMoriond17_80X_mcRun2_asymptotic_2016_TrancheIV_v6_ext1-v1/V08-00-16/merged_ntuple_195.root
p237
aV/hadoop/cms/store/group/snt/run2_moriond17/TTJets_SingleLeptFromTbar_TuneCUETP8M1_13TeV-madgraphMLM-pythia8_RunIISummer16MiniAODv2-PUMoriond17_80X_mcRun2_asymptotic_2016_TrancheIV_v6_ext1-v1/V08-00-16/merged_ntuple_196.root
p238
aV/hadoop/cms/store/group/snt/run2_moriond17/TTJets_SingleLeptFromTbar_TuneCUETP8M1_13TeV-madgraphMLM-pythia8_RunIISummer16MiniAODv2-PUMoriond17_80X_mcRun2_asymptotic_2016_TrancheIV_v6_ext1-v1/V08-00-16/merged_ntuple_197.root
p239
aV/hadoop/cms/store/group/snt/run2_moriond17/TTJets_SingleLeptFromTbar_TuneCUETP8M1_13TeV-madgraphMLM-pythia8_RunIISummer16MiniAODv2-PUMoriond17_80X_mcRun2_asymptotic_2016_TrancheIV_v6_ext1-v1/V08-00-16/merged_ntuple_198.root
p240
aV/hadoop/cms/store/group/snt/run2_moriond17/TTJets_SingleLeptFromTbar_TuneCUETP8M1_13TeV-madgraphMLM-pythia8_RunIISummer16MiniAODv2-PUMoriond17_80X_mcRun2_asymptotic_2016_TrancheIV_v6_ext1-v1/V08-00-16/merged_ntuple_199.root
p241
aV/hadoop/cms/store/group/snt/run2_moriond17/TTJets_SingleLeptFromTbar_TuneCUETP8M1_13TeV-madgraphMLM-pythia8_RunIISummer16MiniAODv2-PUMoriond17_80X_mcRun2_asymptotic_2016_TrancheIV_v6_ext1-v1/V08-00-16/merged_ntuple_2.root
p242
aV/hadoop/cms/store/group/snt/run2_moriond17/TTJets_SingleLeptFromTbar_TuneCUETP8M1_13TeV-madgraphMLM-pythia8_RunIISummer16MiniAODv2-PUMoriond17_80X_mcRun2_asymptotic_2016_TrancheIV_v6_ext1-v1/V08-00-16/merged_ntuple_20.root
p243
aV/hadoop/cms/store/group/snt/run2_moriond17/TTJets_SingleLeptFromTbar_TuneCUETP8M1_13TeV-madgraphMLM-pythia8_RunIISummer16MiniAODv2-PUMoriond17_80X_mcRun2_asymptotic_2016_TrancheIV_v6_ext1-v1/V08-00-16/merged_ntuple_200.root
p244
aV/hadoop/cms/store/group/snt/run2_moriond17/TTJets_SingleLeptFromTbar_TuneCUETP8M1_13TeV-madgraphMLM-pythia8_RunIISummer16MiniAODv2-PUMoriond17_80X_mcRun2_asymptotic_2016_TrancheIV_v6_ext1-v1/V08-00-16/merged_ntuple_201.root
p245
aV/hadoop/cms/store/group/snt/run2_moriond17/TTJets_SingleLeptFromTbar_TuneCUETP8M1_13TeV-madgraphMLM-pythia8_RunIISummer16MiniAODv2-PUMoriond17_80X_mcRun2_asymptotic_2016_TrancheIV_v6_ext1-v1/V08-00-16/merged_ntuple_202.root
p246
aV/hadoop/cms/store/group/snt/run2_moriond17/TTJets_SingleLeptFromTbar_TuneCUETP8M1_13TeV-madgraphMLM-pythia8_RunIISummer16MiniAODv2-PUMoriond17_80X_mcRun2_asymptotic_2016_TrancheIV_v6_ext1-v1/V08-00-16/merged_ntuple_203.root
p247
aV/hadoop/cms/store/group/snt/run2_moriond17/TTJets_SingleLeptFromTbar_TuneCUETP8M1_13TeV-madgraphMLM-pythia8_RunIISummer16MiniAODv2-PUMoriond17_80X_mcRun2_asymptotic_2016_TrancheIV_v6_ext1-v1/V08-00-16/merged_ntuple_204.root
p248
aV/hadoop/cms/store/group/snt/run2_moriond17/TTJets_SingleLeptFromTbar_TuneCUETP8M1_13TeV-madgraphMLM-pythia8_RunIISummer16MiniAODv2-PUMoriond17_80X_mcRun2_asymptotic_2016_TrancheIV_v6_ext1-v1/V08-00-16/merged_ntuple_205.root
p249
aV/hadoop/cms/store/group/snt/run2_moriond17/TTJets_SingleLeptFromTbar_TuneCUETP8M1_13TeV-madgraphMLM-pythia8_RunIISummer16MiniAODv2-PUMoriond17_80X_mcRun2_asymptotic_2016_TrancheIV_v6_ext1-v1/V08-00-16/merged_ntuple_206.root
p250
aV/hadoop/cms/store/group/snt/run2_moriond17/TTJets_SingleLeptFromTbar_TuneCUETP8M1_13TeV-madgraphMLM-pythia8_RunIISummer16MiniAODv2-PUMoriond17_80X_mcRun2_asymptotic_2016_TrancheIV_v6_ext1-v1/V08-00-16/merged_ntuple_207.root
p251
aV/hadoop/cms/store/group/snt/run2_moriond17/TTJets_SingleLeptFromTbar_TuneCUETP8M1_13TeV-madgraphMLM-pythia8_RunIISummer16MiniAODv2-PUMoriond17_80X_mcRun2_asymptotic_2016_TrancheIV_v6_ext1-v1/V08-00-16/merged_ntuple_208.root
p252
aV/hadoop/cms/store/group/snt/run2_moriond17/TTJets_SingleLeptFromTbar_TuneCUETP8M1_13TeV-madgraphMLM-pythia8_RunIISummer16MiniAODv2-PUMoriond17_80X_mcRun2_asymptotic_2016_TrancheIV_v6_ext1-v1/V08-00-16/merged_ntuple_209.root
p253
aV/hadoop/cms/store/group/snt/run2_moriond17/TTJets_SingleLeptFromTbar_TuneCUETP8M1_13TeV-madgraphMLM-pythia8_RunIISummer16MiniAODv2-PUMoriond17_80X_mcRun2_asymptotic_2016_TrancheIV_v6_ext1-v1/V08-00-16/merged_ntuple_21.root
p254
aV/hadoop/cms/store/group/snt/run2_moriond17/TTJets_SingleLeptFromTbar_TuneCUETP8M1_13TeV-madgraphMLM-pythia8_RunIISummer16MiniAODv2-PUMoriond17_80X_mcRun2_asymptotic_2016_TrancheIV_v6_ext1-v1/V08-00-16/merged_ntuple_210.root
p255
aV/hadoop/cms/store/group/snt/run2_moriond17/TTJets_SingleLeptFromTbar_TuneCUETP8M1_13TeV-madgraphMLM-pythia8_RunIISummer16MiniAODv2-PUMoriond17_80X_mcRun2_asymptotic_2016_TrancheIV_v6_ext1-v1/V08-00-16/merged_ntuple_211.root
p256
aV/hadoop/cms/store/group/snt/run2_moriond17/TTJets_SingleLeptFromTbar_TuneCUETP8M1_13TeV-madgraphMLM-pythia8_RunIISummer16MiniAODv2-PUMoriond17_80X_mcRun2_asymptotic_2016_TrancheIV_v6_ext1-v1/V08-00-16/merged_ntuple_212.root
p257
aV/hadoop/cms/store/group/snt/run2_moriond17/TTJets_SingleLeptFromTbar_TuneCUETP8M1_13TeV-madgraphMLM-pythia8_RunIISummer16MiniAODv2-PUMoriond17_80X_mcRun2_asymptotic_2016_TrancheIV_v6_ext1-v1/V08-00-16/merged_ntuple_213.root
p258
aV/hadoop/cms/store/group/snt/run2_moriond17/TTJets_SingleLeptFromTbar_TuneCUETP8M1_13TeV-madgraphMLM-pythia8_RunIISummer16MiniAODv2-PUMoriond17_80X_mcRun2_asymptotic_2016_TrancheIV_v6_ext1-v1/V08-00-16/merged_ntuple_214.root
p259
aV/hadoop/cms/store/group/snt/run2_moriond17/TTJets_SingleLeptFromTbar_TuneCUETP8M1_13TeV-madgraphMLM-pythia8_RunIISummer16MiniAODv2-PUMoriond17_80X_mcRun2_asymptotic_2016_TrancheIV_v6_ext1-v1/V08-00-16/merged_ntuple_215.root
p260
aV/hadoop/cms/store/group/snt/run2_moriond17/TTJets_SingleLeptFromTbar_TuneCUETP8M1_13TeV-madgraphMLM-pythia8_RunIISummer16MiniAODv2-PUMoriond17_80X_mcRun2_asymptotic_2016_TrancheIV_v6_ext1-v1/V08-00-16/merged_ntuple_216.root
p261
aV/hadoop/cms/store/group/snt/run2_moriond17/TTJets_SingleLeptFromTbar_TuneCUETP8M1_13TeV-madgraphMLM-pythia8_RunIISummer16MiniAODv2-PUMoriond17_80X_mcRun2_asymptotic_2016_TrancheIV_v6_ext1-v1/V08-00-16/merged_ntuple_217.root
p262
aV/hadoop/cms/store/group/snt/run2_moriond17/TTJets_SingleLeptFromTbar_TuneCUETP8M1_13TeV-madgraphMLM-pythia8_RunIISummer16MiniAODv2-PUMoriond17_80X_mcRun2_asymptotic_2016_TrancheIV_v6_ext1-v1/V08-00-16/merged_ntuple_218.root
p263
aV/hadoop/cms/store/group/snt/run2_moriond17/TTJets_SingleLeptFromTbar_TuneCUETP8M1_13TeV-madgraphMLM-pythia8_RunIISummer16MiniAODv2-PUMoriond17_80X_mcRun2_asymptotic_2016_TrancheIV_v6_ext1-v1/V08-00-16/merged_ntuple_219.root
p264
aV/hadoop/cms/store/group/snt/run2_moriond17/TTJets_SingleLeptFromTbar_TuneCUETP8M1_13TeV-madgraphMLM-pythia8_RunIISummer16MiniAODv2-PUMoriond17_80X_mcRun2_asymptotic_2016_TrancheIV_v6_ext1-v1/V08-00-16/merged_ntuple_22.root
p265
aV/hadoop/cms/store/group/snt/run2_moriond17/TTJets_SingleLeptFromTbar_TuneCUETP8M1_13TeV-madgraphMLM-pythia8_RunIISummer16MiniAODv2-PUMoriond17_80X_mcRun2_asymptotic_2016_TrancheIV_v6_ext1-v1/V08-00-16/merged_ntuple_220.root
p266
aV/hadoop/cms/store/group/snt/run2_moriond17/TTJets_SingleLeptFromTbar_TuneCUETP8M1_13TeV-madgraphMLM-pythia8_RunIISummer16MiniAODv2-PUMoriond17_80X_mcRun2_asymptotic_2016_TrancheIV_v6_ext1-v1/V08-00-16/merged_ntuple_221.root
p267
aV/hadoop/cms/store/group/snt/run2_moriond17/TTJets_SingleLeptFromTbar_TuneCUETP8M1_13TeV-madgraphMLM-pythia8_RunIISummer16MiniAODv2-PUMoriond17_80X_mcRun2_asymptotic_2016_TrancheIV_v6_ext1-v1/V08-00-16/merged_ntuple_222.root
p268
aV/hadoop/cms/store/group/snt/run2_moriond17/TTJets_SingleLeptFromTbar_TuneCUETP8M1_13TeV-madgraphMLM-pythia8_RunIISummer16MiniAODv2-PUMoriond17_80X_mcRun2_asymptotic_2016_TrancheIV_v6_ext1-v1/V08-00-16/merged_ntuple_223.root
p269
aV/hadoop/cms/store/group/snt/run2_moriond17/TTJets_SingleLeptFromTbar_TuneCUETP8M1_13TeV-madgraphMLM-pythia8_RunIISummer16MiniAODv2-PUMoriond17_80X_mcRun2_asymptotic_2016_TrancheIV_v6_ext1-v1/V08-00-16/merged_ntuple_224.root
p270
aV/hadoop/cms/store/group/snt/run2_moriond17/TTJets_SingleLeptFromTbar_TuneCUETP8M1_13TeV-madgraphMLM-pythia8_RunIISummer16MiniAODv2-PUMoriond17_80X_mcRun2_asymptotic_2016_TrancheIV_v6_ext1-v1/V08-00-16/merged_ntuple_225.root
p271
aV/hadoop/cms/store/group/snt/run2_moriond17/TTJets_SingleLeptFromTbar_TuneCUETP8M1_13TeV-madgraphMLM-pythia8_RunIISummer16MiniAODv2-PUMoriond17_80X_mcRun2_asymptotic_2016_TrancheIV_v6_ext1-v1/V08-00-16/merged_ntuple_226.root
p272
aV/hadoop/cms/store/group/snt/run2_moriond17/TTJets_SingleLeptFromTbar_TuneCUETP8M1_13TeV-madgraphMLM-pythia8_RunIISummer16MiniAODv2-PUMoriond17_80X_mcRun2_asymptotic_2016_TrancheIV_v6_ext1-v1/V08-00-16/merged_ntuple_227.root
p273
aV/hadoop/cms/store/group/snt/run2_moriond17/TTJets_SingleLeptFromTbar_TuneCUETP8M1_13TeV-madgraphMLM-pythia8_RunIISummer16MiniAODv2-PUMoriond17_80X_mcRun2_asymptotic_2016_TrancheIV_v6_ext1-v1/V08-00-16/merged_ntuple_228.root
p274
aV/hadoop/cms/store/group/snt/run2_moriond17/TTJets_SingleLeptFromTbar_TuneCUETP8M1_13TeV-madgraphMLM-pythia8_RunIISummer16MiniAODv2-PUMoriond17_80X_mcRun2_asymptotic_2016_TrancheIV_v6_ext1-v1/V08-00-16/merged_ntuple_229.root
p275
aV/hadoop/cms/store/group/snt/run2_moriond17/TTJets_SingleLeptFromTbar_TuneCUETP8M1_13TeV-madgraphMLM-pythia8_RunIISummer16MiniAODv2-PUMoriond17_80X_mcRun2_asymptotic_2016_TrancheIV_v6_ext1-v1/V08-00-16/merged_ntuple_23.root
p276
aV/hadoop/cms/store/group/snt/run2_moriond17/TTJets_SingleLeptFromTbar_TuneCUETP8M1_13TeV-madgraphMLM-pythia8_RunIISummer16MiniAODv2-PUMoriond17_80X_mcRun2_asymptotic_2016_TrancheIV_v6_ext1-v1/V08-00-16/merged_ntuple_230.root
p277
aV/hadoop/cms/store/group/snt/run2_moriond17/TTJets_SingleLeptFromTbar_TuneCUETP8M1_13TeV-madgraphMLM-pythia8_RunIISummer16MiniAODv2-PUMoriond17_80X_mcRun2_asymptotic_2016_TrancheIV_v6_ext1-v1/V08-00-16/merged_ntuple_231.root
p278
aV/hadoop/cms/store/group/snt/run2_moriond17/TTJets_SingleLeptFromTbar_TuneCUETP8M1_13TeV-madgraphMLM-pythia8_RunIISummer16MiniAODv2-PUMoriond17_80X_mcRun2_asymptotic_2016_TrancheIV_v6_ext1-v1/V08-00-16/merged_ntuple_232.root
p279
aV/hadoop/cms/store/group/snt/run2_moriond17/TTJets_SingleLeptFromTbar_TuneCUETP8M1_13TeV-madgraphMLM-pythia8_RunIISummer16MiniAODv2-PUMoriond17_80X_mcRun2_asymptotic_2016_TrancheIV_v6_ext1-v1/V08-00-16/merged_ntuple_233.root
p280
aV/hadoop/cms/store/group/snt/run2_moriond17/TTJets_SingleLeptFromTbar_TuneCUETP8M1_13TeV-madgraphMLM-pythia8_RunIISummer16MiniAODv2-PUMoriond17_80X_mcRun2_asymptotic_2016_TrancheIV_v6_ext1-v1/V08-00-16/merged_ntuple_234.root
p281
aV/hadoop/cms/store/group/snt/run2_moriond17/TTJets_SingleLeptFromTbar_TuneCUETP8M1_13TeV-madgraphMLM-pythia8_RunIISummer16MiniAODv2-PUMoriond17_80X_mcRun2_asymptotic_2016_TrancheIV_v6_ext1-v1/V08-00-16/merged_ntuple_235.root
p282
aV/hadoop/cms/store/group/snt/run2_moriond17/TTJets_SingleLeptFromTbar_TuneCUETP8M1_13TeV-madgraphMLM-pythia8_RunIISummer16MiniAODv2-PUMoriond17_80X_mcRun2_asymptotic_2016_TrancheIV_v6_ext1-v1/V08-00-16/merged_ntuple_236.root
p283
aV/hadoop/cms/store/group/snt/run2_moriond17/TTJets_SingleLeptFromTbar_TuneCUETP8M1_13TeV-madgraphMLM-pythia8_RunIISummer16MiniAODv2-PUMoriond17_80X_mcRun2_asymptotic_2016_TrancheIV_v6_ext1-v1/V08-00-16/merged_ntuple_237.root
p284
aV/hadoop/cms/store/group/snt/run2_moriond17/TTJets_SingleLeptFromTbar_TuneCUETP8M1_13TeV-madgraphMLM-pythia8_RunIISummer16MiniAODv2-PUMoriond17_80X_mcRun2_asymptotic_2016_TrancheIV_v6_ext1-v1/V08-00-16/merged_ntuple_238.root
p285
aV/hadoop/cms/store/group/snt/run2_moriond17/TTJets_SingleLeptFromTbar_TuneCUETP8M1_13TeV-madgraphMLM-pythia8_RunIISummer16MiniAODv2-PUMoriond17_80X_mcRun2_asymptotic_2016_TrancheIV_v6_ext1-v1/V08-00-16/merged_ntuple_239.root
p286
aV/hadoop/cms/store/group/snt/run2_moriond17/TTJets_SingleLeptFromTbar_TuneCUETP8M1_13TeV-madgraphMLM-pythia8_RunIISummer16MiniAODv2-PUMoriond17_80X_mcRun2_asymptotic_2016_TrancheIV_v6_ext1-v1/V08-00-16/merged_ntuple_24.root
p287
aV/hadoop/cms/store/group/snt/run2_moriond17/TTJets_SingleLeptFromTbar_TuneCUETP8M1_13TeV-madgraphMLM-pythia8_RunIISummer16MiniAODv2-PUMoriond17_80X_mcRun2_asymptotic_2016_TrancheIV_v6_ext1-v1/V08-00-16/merged_ntuple_240.root
p288
aV/hadoop/cms/store/group/snt/run2_moriond17/TTJets_SingleLeptFromTbar_TuneCUETP8M1_13TeV-madgraphMLM-pythia8_RunIISummer16MiniAODv2-PUMoriond17_80X_mcRun2_asymptotic_2016_TrancheIV_v6_ext1-v1/V08-00-16/merged_ntuple_241.root
p289
aV/hadoop/cms/store/group/snt/run2_moriond17/TTJets_SingleLeptFromTbar_TuneCUETP8M1_13TeV-madgraphMLM-pythia8_RunIISummer16MiniAODv2-PUMoriond17_80X_mcRun2_asymptotic_2016_TrancheIV_v6_ext1-v1/V08-00-16/merged_ntuple_242.root
p290
aV/hadoop/cms/store/group/snt/run2_moriond17/TTJets_SingleLeptFromTbar_TuneCUETP8M1_13TeV-madgraphMLM-pythia8_RunIISummer16MiniAODv2-PUMoriond17_80X_mcRun2_asymptotic_2016_TrancheIV_v6_ext1-v1/V08-00-16/merged_ntuple_243.root
p291
aV/hadoop/cms/store/group/snt/run2_moriond17/TTJets_SingleLeptFromTbar_TuneCUETP8M1_13TeV-madgraphMLM-pythia8_RunIISummer16MiniAODv2-PUMoriond17_80X_mcRun2_asymptotic_2016_TrancheIV_v6_ext1-v1/V08-00-16/merged_ntuple_244.root
p292
aV/hadoop/cms/store/group/snt/run2_moriond17/TTJets_SingleLeptFromTbar_TuneCUETP8M1_13TeV-madgraphMLM-pythia8_RunIISummer16MiniAODv2-PUMoriond17_80X_mcRun2_asymptotic_2016_TrancheIV_v6_ext1-v1/V08-00-16/merged_ntuple_245.root
p293
aV/hadoop/cms/store/group/snt/run2_moriond17/TTJets_SingleLeptFromTbar_TuneCUETP8M1_13TeV-madgraphMLM-pythia8_RunIISummer16MiniAODv2-PUMoriond17_80X_mcRun2_asymptotic_2016_TrancheIV_v6_ext1-v1/V08-00-16/merged_ntuple_246.root
p294
aV/hadoop/cms/store/group/snt/run2_moriond17/TTJets_SingleLeptFromTbar_TuneCUETP8M1_13TeV-madgraphMLM-pythia8_RunIISummer16MiniAODv2-PUMoriond17_80X_mcRun2_asymptotic_2016_TrancheIV_v6_ext1-v1/V08-00-16/merged_ntuple_247.root
p295
aV/hadoop/cms/store/group/snt/run2_moriond17/TTJets_SingleLeptFromTbar_TuneCUETP8M1_13TeV-madgraphMLM-pythia8_RunIISummer16MiniAODv2-PUMoriond17_80X_mcRun2_asymptotic_2016_TrancheIV_v6_ext1-v1/V08-00-16/merged_ntuple_248.root
p296
aV/hadoop/cms/store/group/snt/run2_moriond17/TTJets_SingleLeptFromTbar_TuneCUETP8M1_13TeV-madgraphMLM-pythia8_RunIISummer16MiniAODv2-PUMoriond17_80X_mcRun2_asymptotic_2016_TrancheIV_v6_ext1-v1/V08-00-16/merged_ntuple_249.root
p297
aV/hadoop/cms/store/group/snt/run2_moriond17/TTJets_SingleLeptFromTbar_TuneCUETP8M1_13TeV-madgraphMLM-pythia8_RunIISummer16MiniAODv2-PUMoriond17_80X_mcRun2_asymptotic_2016_TrancheIV_v6_ext1-v1/V08-00-16/merged_ntuple_25.root
p298
aV/hadoop/cms/store/group/snt/run2_moriond17/TTJets_SingleLeptFromTbar_TuneCUETP8M1_13TeV-madgraphMLM-pythia8_RunIISummer16MiniAODv2-PUMoriond17_80X_mcRun2_asymptotic_2016_TrancheIV_v6_ext1-v1/V08-00-16/merged_ntuple_250.root
p299
aV/hadoop/cms/store/group/snt/run2_moriond17/TTJets_SingleLeptFromTbar_TuneCUETP8M1_13TeV-madgraphMLM-pythia8_RunIISummer16MiniAODv2-PUMoriond17_80X_mcRun2_asymptotic_2016_TrancheIV_v6_ext1-v1/V08-00-16/merged_ntuple_251.root
p300
aV/hadoop/cms/store/group/snt/run2_moriond17/TTJets_SingleLeptFromTbar_TuneCUETP8M1_13TeV-madgraphMLM-pythia8_RunIISummer16MiniAODv2-PUMoriond17_80X_mcRun2_asymptotic_2016_TrancheIV_v6_ext1-v1/V08-00-16/merged_ntuple_252.root
p301
aV/hadoop/cms/store/group/snt/run2_moriond17/TTJets_SingleLeptFromTbar_TuneCUETP8M1_13TeV-madgraphMLM-pythia8_RunIISummer16MiniAODv2-PUMoriond17_80X_mcRun2_asymptotic_2016_TrancheIV_v6_ext1-v1/V08-00-16/merged_ntuple_253.root
p302
aV/hadoop/cms/store/group/snt/run2_moriond17/TTJets_SingleLeptFromTbar_TuneCUETP8M1_13TeV-madgraphMLM-pythia8_RunIISummer16MiniAODv2-PUMoriond17_80X_mcRun2_asymptotic_2016_TrancheIV_v6_ext1-v1/V08-00-16/merged_ntuple_254.root
p303
aV/hadoop/cms/store/group/snt/run2_moriond17/TTJets_SingleLeptFromTbar_TuneCUETP8M1_13TeV-madgraphMLM-pythia8_RunIISummer16MiniAODv2-PUMoriond17_80X_mcRun2_asymptotic_2016_TrancheIV_v6_ext1-v1/V08-00-16/merged_ntuple_255.root
p304
aV/hadoop/cms/store/group/snt/run2_moriond17/TTJets_SingleLeptFromTbar_TuneCUETP8M1_13TeV-madgraphMLM-pythia8_RunIISummer16MiniAODv2-PUMoriond17_80X_mcRun2_asymptotic_2016_TrancheIV_v6_ext1-v1/V08-00-16/merged_ntuple_256.root
p305
aV/hadoop/cms/store/group/snt/run2_moriond17/TTJets_SingleLeptFromTbar_TuneCUETP8M1_13TeV-madgraphMLM-pythia8_RunIISummer16MiniAODv2-PUMoriond17_80X_mcRun2_asymptotic_2016_TrancheIV_v6_ext1-v1/V08-00-16/merged_ntuple_257.root
p306
aV/hadoop/cms/store/group/snt/run2_moriond17/TTJets_SingleLeptFromTbar_TuneCUETP8M1_13TeV-madgraphMLM-pythia8_RunIISummer16MiniAODv2-PUMoriond17_80X_mcRun2_asymptotic_2016_TrancheIV_v6_ext1-v1/V08-00-16/merged_ntuple_258.root
p307
aV/hadoop/cms/store/group/snt/run2_moriond17/TTJets_SingleLeptFromTbar_TuneCUETP8M1_13TeV-madgraphMLM-pythia8_RunIISummer16MiniAODv2-PUMoriond17_80X_mcRun2_asymptotic_2016_TrancheIV_v6_ext1-v1/V08-00-16/merged_ntuple_259.root
p308
aV/hadoop/cms/store/group/snt/run2_moriond17/TTJets_SingleLeptFromTbar_TuneCUETP8M1_13TeV-madgraphMLM-pythia8_RunIISummer16MiniAODv2-PUMoriond17_80X_mcRun2_asymptotic_2016_TrancheIV_v6_ext1-v1/V08-00-16/merged_ntuple_26.root
p309
aV/hadoop/cms/store/group/snt/run2_moriond17/TTJets_SingleLeptFromTbar_TuneCUETP8M1_13TeV-madgraphMLM-pythia8_RunIISummer16MiniAODv2-PUMoriond17_80X_mcRun2_asymptotic_2016_TrancheIV_v6_ext1-v1/V08-00-16/merged_ntuple_260.root
p310
aV/hadoop/cms/store/group/snt/run2_moriond17/TTJets_SingleLeptFromTbar_TuneCUETP8M1_13TeV-madgraphMLM-pythia8_RunIISummer16MiniAODv2-PUMoriond17_80X_mcRun2_asymptotic_2016_TrancheIV_v6_ext1-v1/V08-00-16/merged_ntuple_261.root
p311
aV/hadoop/cms/store/group/snt/run2_moriond17/TTJets_SingleLeptFromTbar_TuneCUETP8M1_13TeV-madgraphMLM-pythia8_RunIISummer16MiniAODv2-PUMoriond17_80X_mcRun2_asymptotic_2016_TrancheIV_v6_ext1-v1/V08-00-16/merged_ntuple_262.root
p312
aV/hadoop/cms/store/group/snt/run2_moriond17/TTJets_SingleLeptFromTbar_TuneCUETP8M1_13TeV-madgraphMLM-pythia8_RunIISummer16MiniAODv2-PUMoriond17_80X_mcRun2_asymptotic_2016_TrancheIV_v6_ext1-v1/V08-00-16/merged_ntuple_263.root
p313
aV/hadoop/cms/store/group/snt/run2_moriond17/TTJets_SingleLeptFromTbar_TuneCUETP8M1_13TeV-madgraphMLM-pythia8_RunIISummer16MiniAODv2-PUMoriond17_80X_mcRun2_asymptotic_2016_TrancheIV_v6_ext1-v1/V08-00-16/merged_ntuple_264.root
p314
aV/hadoop/cms/store/group/snt/run2_moriond17/TTJets_SingleLeptFromTbar_TuneCUETP8M1_13TeV-madgraphMLM-pythia8_RunIISummer16MiniAODv2-PUMoriond17_80X_mcRun2_asymptotic_2016_TrancheIV_v6_ext1-v1/V08-00-16/merged_ntuple_265.root
p315
aV/hadoop/cms/store/group/snt/run2_moriond17/TTJets_SingleLeptFromTbar_TuneCUETP8M1_13TeV-madgraphMLM-pythia8_RunIISummer16MiniAODv2-PUMoriond17_80X_mcRun2_asymptotic_2016_TrancheIV_v6_ext1-v1/V08-00-16/merged_ntuple_266.root
p316
aV/hadoop/cms/store/group/snt/run2_moriond17/TTJets_SingleLeptFromTbar_TuneCUETP8M1_13TeV-madgraphMLM-pythia8_RunIISummer16MiniAODv2-PUMoriond17_80X_mcRun2_asymptotic_2016_TrancheIV_v6_ext1-v1/V08-00-16/merged_ntuple_267.root
p317
aV/hadoop/cms/store/group/snt/run2_moriond17/TTJets_SingleLeptFromTbar_TuneCUETP8M1_13TeV-madgraphMLM-pythia8_RunIISummer16MiniAODv2-PUMoriond17_80X_mcRun2_asymptotic_2016_TrancheIV_v6_ext1-v1/V08-00-16/merged_ntuple_268.root
p318
aV/hadoop/cms/store/group/snt/run2_moriond17/TTJets_SingleLeptFromTbar_TuneCUETP8M1_13TeV-madgraphMLM-pythia8_RunIISummer16MiniAODv2-PUMoriond17_80X_mcRun2_asymptotic_2016_TrancheIV_v6_ext1-v1/V08-00-16/merged_ntuple_269.root
p319
aV/hadoop/cms/store/group/snt/run2_moriond17/TTJets_SingleLeptFromTbar_TuneCUETP8M1_13TeV-madgraphMLM-pythia8_RunIISummer16MiniAODv2-PUMoriond17_80X_mcRun2_asymptotic_2016_TrancheIV_v6_ext1-v1/V08-00-16/merged_ntuple_27.root
p320
aV/hadoop/cms/store/group/snt/run2_moriond17/TTJets_SingleLeptFromTbar_TuneCUETP8M1_13TeV-madgraphMLM-pythia8_RunIISummer16MiniAODv2-PUMoriond17_80X_mcRun2_asymptotic_2016_TrancheIV_v6_ext1-v1/V08-00-16/merged_ntuple_270.root
p321
aV/hadoop/cms/store/group/snt/run2_moriond17/TTJets_SingleLeptFromTbar_TuneCUETP8M1_13TeV-madgraphMLM-pythia8_RunIISummer16MiniAODv2-PUMoriond17_80X_mcRun2_asymptotic_2016_TrancheIV_v6_ext1-v1/V08-00-16/merged_ntuple_271.root
p322
aV/hadoop/cms/store/group/snt/run2_moriond17/TTJets_SingleLeptFromTbar_TuneCUETP8M1_13TeV-madgraphMLM-pythia8_RunIISummer16MiniAODv2-PUMoriond17_80X_mcRun2_asymptotic_2016_TrancheIV_v6_ext1-v1/V08-00-16/merged_ntuple_28.root
p323
aV/hadoop/cms/store/group/snt/run2_moriond17/TTJets_SingleLeptFromTbar_TuneCUETP8M1_13TeV-madgraphMLM-pythia8_RunIISummer16MiniAODv2-PUMoriond17_80X_mcRun2_asymptotic_2016_TrancheIV_v6_ext1-v1/V08-00-16/merged_ntuple_29.root
p324
aV/hadoop/cms/store/group/snt/run2_moriond17/TTJets_SingleLeptFromTbar_TuneCUETP8M1_13TeV-madgraphMLM-pythia8_RunIISummer16MiniAODv2-PUMoriond17_80X_mcRun2_asymptotic_2016_TrancheIV_v6_ext1-v1/V08-00-16/merged_ntuple_3.root
p325
aV/hadoop/cms/store/group/snt/run2_moriond17/TTJets_SingleLeptFromTbar_TuneCUETP8M1_13TeV-madgraphMLM-pythia8_RunIISummer16MiniAODv2-PUMoriond17_80X_mcRun2_asymptotic_2016_TrancheIV_v6_ext1-v1/V08-00-16/merged_ntuple_30.root
p326
aV/hadoop/cms/store/group/snt/run2_moriond17/TTJets_SingleLeptFromTbar_TuneCUETP8M1_13TeV-madgraphMLM-pythia8_RunIISummer16MiniAODv2-PUMoriond17_80X_mcRun2_asymptotic_2016_TrancheIV_v6_ext1-v1/V08-00-16/merged_ntuple_31.root
p327
aV/hadoop/cms/store/group/snt/run2_moriond17/TTJets_SingleLeptFromTbar_TuneCUETP8M1_13TeV-madgraphMLM-pythia8_RunIISummer16MiniAODv2-PUMoriond17_80X_mcRun2_asymptotic_2016_TrancheIV_v6_ext1-v1/V08-00-16/merged_ntuple_32.root
p328
aV/hadoop/cms/store/group/snt/run2_moriond17/TTJets_SingleLeptFromTbar_TuneCUETP8M1_13TeV-madgraphMLM-pythia8_RunIISummer16MiniAODv2-PUMoriond17_80X_mcRun2_asymptotic_2016_TrancheIV_v6_ext1-v1/V08-00-16/merged_ntuple_33.root
p329
aV/hadoop/cms/store/group/snt/run2_moriond17/TTJets_SingleLeptFromTbar_TuneCUETP8M1_13TeV-madgraphMLM-pythia8_RunIISummer16MiniAODv2-PUMoriond17_80X_mcRun2_asymptotic_2016_TrancheIV_v6_ext1-v1/V08-00-16/merged_ntuple_34.root
p330
aV/hadoop/cms/store/group/snt/run2_moriond17/TTJets_SingleLeptFromTbar_TuneCUETP8M1_13TeV-madgraphMLM-pythia8_RunIISummer16MiniAODv2-PUMoriond17_80X_mcRun2_asymptotic_2016_TrancheIV_v6_ext1-v1/V08-00-16/merged_ntuple_35.root
p331
aV/hadoop/cms/store/group/snt/run2_moriond17/TTJets_SingleLeptFromTbar_TuneCUETP8M1_13TeV-madgraphMLM-pythia8_RunIISummer16MiniAODv2-PUMoriond17_80X_mcRun2_asymptotic_2016_TrancheIV_v6_ext1-v1/V08-00-16/merged_ntuple_36.root
p332
aV/hadoop/cms/store/group/snt/run2_moriond17/TTJets_SingleLeptFromTbar_TuneCUETP8M1_13TeV-madgraphMLM-pythia8_RunIISummer16MiniAODv2-PUMoriond17_80X_mcRun2_asymptotic_2016_TrancheIV_v6_ext1-v1/V08-00-16/merged_ntuple_37.root
p333
aV/hadoop/cms/store/group/snt/run2_moriond17/TTJets_SingleLeptFromTbar_TuneCUETP8M1_13TeV-madgraphMLM-pythia8_RunIISummer16MiniAODv2-PUMoriond17_80X_mcRun2_asymptotic_2016_TrancheIV_v6_ext1-v1/V08-00-16/merged_ntuple_38.root
p334
aV/hadoop/cms/store/group/snt/run2_moriond17/TTJets_SingleLeptFromTbar_TuneCUETP8M1_13TeV-madgraphMLM-pythia8_RunIISummer16MiniAODv2-PUMoriond17_80X_mcRun2_asymptotic_2016_TrancheIV_v6_ext1-v1/V08-00-16/merged_ntuple_39.root
p335
aV/hadoop/cms/store/group/snt/run2_moriond17/TTJets_SingleLeptFromTbar_TuneCUETP8M1_13TeV-madgraphMLM-pythia8_RunIISummer16MiniAODv2-PUMoriond17_80X_mcRun2_asymptotic_2016_TrancheIV_v6_ext1-v1/V08-00-16/merged_ntuple_4.root
p336
aV/hadoop/cms/store/group/snt/run2_moriond17/TTJets_SingleLeptFromTbar_TuneCUETP8M1_13TeV-madgraphMLM-pythia8_RunIISummer16MiniAODv2-PUMoriond17_80X_mcRun2_asymptotic_2016_TrancheIV_v6_ext1-v1/V08-00-16/merged_ntuple_40.root
p337
aV/hadoop/cms/store/group/snt/run2_moriond17/TTJets_SingleLeptFromTbar_TuneCUETP8M1_13TeV-madgraphMLM-pythia8_RunIISummer16MiniAODv2-PUMoriond17_80X_mcRun2_asymptotic_2016_TrancheIV_v6_ext1-v1/V08-00-16/merged_ntuple_41.root
p338
aV/hadoop/cms/store/group/snt/run2_moriond17/TTJets_SingleLeptFromTbar_TuneCUETP8M1_13TeV-madgraphMLM-pythia8_RunIISummer16MiniAODv2-PUMoriond17_80X_mcRun2_asymptotic_2016_TrancheIV_v6_ext1-v1/V08-00-16/merged_ntuple_42.root
p339
aV/hadoop/cms/store/group/snt/run2_moriond17/TTJets_SingleLeptFromTbar_TuneCUETP8M1_13TeV-madgraphMLM-pythia8_RunIISummer16MiniAODv2-PUMoriond17_80X_mcRun2_asymptotic_2016_TrancheIV_v6_ext1-v1/V08-00-16/merged_ntuple_43.root
p340
aV/hadoop/cms/store/group/snt/run2_moriond17/TTJets_SingleLeptFromTbar_TuneCUETP8M1_13TeV-madgraphMLM-pythia8_RunIISummer16MiniAODv2-PUMoriond17_80X_mcRun2_asymptotic_2016_TrancheIV_v6_ext1-v1/V08-00-16/merged_ntuple_44.root
p341
aV/hadoop/cms/store/group/snt/run2_moriond17/TTJets_SingleLeptFromTbar_TuneCUETP8M1_13TeV-madgraphMLM-pythia8_RunIISummer16MiniAODv2-PUMoriond17_80X_mcRun2_asymptotic_2016_TrancheIV_v6_ext1-v1/V08-00-16/merged_ntuple_45.root
p342
aV/hadoop/cms/store/group/snt/run2_moriond17/TTJets_SingleLeptFromTbar_TuneCUETP8M1_13TeV-madgraphMLM-pythia8_RunIISummer16MiniAODv2-PUMoriond17_80X_mcRun2_asymptotic_2016_TrancheIV_v6_ext1-v1/V08-00-16/merged_ntuple_46.root
p343
aV/hadoop/cms/store/group/snt/run2_moriond17/TTJets_SingleLeptFromTbar_TuneCUETP8M1_13TeV-madgraphMLM-pythia8_RunIISummer16MiniAODv2-PUMoriond17_80X_mcRun2_asymptotic_2016_TrancheIV_v6_ext1-v1/V08-00-16/merged_ntuple_47.root
p344
aV/hadoop/cms/store/group/snt/run2_moriond17/TTJets_SingleLeptFromTbar_TuneCUETP8M1_13TeV-madgraphMLM-pythia8_RunIISummer16MiniAODv2-PUMoriond17_80X_mcRun2_asymptotic_2016_TrancheIV_v6_ext1-v1/V08-00-16/merged_ntuple_48.root
p345
aV/hadoop/cms/store/group/snt/run2_moriond17/TTJets_SingleLeptFromTbar_TuneCUETP8M1_13TeV-madgraphMLM-pythia8_RunIISummer16MiniAODv2-PUMoriond17_80X_mcRun2_asymptotic_2016_TrancheIV_v6_ext1-v1/V08-00-16/merged_ntuple_49.root
p346
aV/hadoop/cms/store/group/snt/run2_moriond17/TTJets_SingleLeptFromTbar_TuneCUETP8M1_13TeV-madgraphMLM-pythia8_RunIISummer16MiniAODv2-PUMoriond17_80X_mcRun2_asymptotic_2016_TrancheIV_v6_ext1-v1/V08-00-16/merged_ntuple_5.root
p347
aV/hadoop/cms/store/group/snt/run2_moriond17/TTJets_SingleLeptFromTbar_TuneCUETP8M1_13TeV-madgraphMLM-pythia8_RunIISummer16MiniAODv2-PUMoriond17_80X_mcRun2_asymptotic_2016_TrancheIV_v6_ext1-v1/V08-00-16/merged_ntuple_50.root
p348
aV/hadoop/cms/store/group/snt/run2_moriond17/TTJets_SingleLeptFromTbar_TuneCUETP8M1_13TeV-madgraphMLM-pythia8_RunIISummer16MiniAODv2-PUMoriond17_80X_mcRun2_asymptotic_2016_TrancheIV_v6_ext1-v1/V08-00-16/merged_ntuple_51.root
p349
aV/hadoop/cms/store/group/snt/run2_moriond17/TTJets_SingleLeptFromTbar_TuneCUETP8M1_13TeV-madgraphMLM-pythia8_RunIISummer16MiniAODv2-PUMoriond17_80X_mcRun2_asymptotic_2016_TrancheIV_v6_ext1-v1/V08-00-16/merged_ntuple_52.root
p350
aV/hadoop/cms/store/group/snt/run2_moriond17/TTJets_SingleLeptFromTbar_TuneCUETP8M1_13TeV-madgraphMLM-pythia8_RunIISummer16MiniAODv2-PUMoriond17_80X_mcRun2_asymptotic_2016_TrancheIV_v6_ext1-v1/V08-00-16/merged_ntuple_53.root
p351
aV/hadoop/cms/store/group/snt/run2_moriond17/TTJets_SingleLeptFromTbar_TuneCUETP8M1_13TeV-madgraphMLM-pythia8_RunIISummer16MiniAODv2-PUMoriond17_80X_mcRun2_asymptotic_2016_TrancheIV_v6_ext1-v1/V08-00-16/merged_ntuple_54.root
p352
aV/hadoop/cms/store/group/snt/run2_moriond17/TTJets_SingleLeptFromTbar_TuneCUETP8M1_13TeV-madgraphMLM-pythia8_RunIISummer16MiniAODv2-PUMoriond17_80X_mcRun2_asymptotic_2016_TrancheIV_v6_ext1-v1/V08-00-16/merged_ntuple_55.root
p353
aV/hadoop/cms/store/group/snt/run2_moriond17/TTJets_SingleLeptFromTbar_TuneCUETP8M1_13TeV-madgraphMLM-pythia8_RunIISummer16MiniAODv2-PUMoriond17_80X_mcRun2_asymptotic_2016_TrancheIV_v6_ext1-v1/V08-00-16/merged_ntuple_56.root
p354
aV/hadoop/cms/store/group/snt/run2_moriond17/TTJets_SingleLeptFromTbar_TuneCUETP8M1_13TeV-madgraphMLM-pythia8_RunIISummer16MiniAODv2-PUMoriond17_80X_mcRun2_asymptotic_2016_TrancheIV_v6_ext1-v1/V08-00-16/merged_ntuple_57.root
p355
aV/hadoop/cms/store/group/snt/run2_moriond17/TTJets_SingleLeptFromTbar_TuneCUETP8M1_13TeV-madgraphMLM-pythia8_RunIISummer16MiniAODv2-PUMoriond17_80X_mcRun2_asymptotic_2016_TrancheIV_v6_ext1-v1/V08-00-16/merged_ntuple_58.root
p356
aV/hadoop/cms/store/group/snt/run2_moriond17/TTJets_SingleLeptFromTbar_TuneCUETP8M1_13TeV-madgraphMLM-pythia8_RunIISummer16MiniAODv2-PUMoriond17_80X_mcRun2_asymptotic_2016_TrancheIV_v6_ext1-v1/V08-00-16/merged_ntuple_59.root
p357
aV/hadoop/cms/store/group/snt/run2_moriond17/TTJets_SingleLeptFromTbar_TuneCUETP8M1_13TeV-madgraphMLM-pythia8_RunIISummer16MiniAODv2-PUMoriond17_80X_mcRun2_asymptotic_2016_TrancheIV_v6_ext1-v1/V08-00-16/merged_ntuple_6.root
p358
aV/hadoop/cms/store/group/snt/run2_moriond17/TTJets_SingleLeptFromTbar_TuneCUETP8M1_13TeV-madgraphMLM-pythia8_RunIISummer16MiniAODv2-PUMoriond17_80X_mcRun2_asymptotic_2016_TrancheIV_v6_ext1-v1/V08-00-16/merged_ntuple_60.root
p359
aV/hadoop/cms/store/group/snt/run2_moriond17/TTJets_SingleLeptFromTbar_TuneCUETP8M1_13TeV-madgraphMLM-pythia8_RunIISummer16MiniAODv2-PUMoriond17_80X_mcRun2_asymptotic_2016_TrancheIV_v6_ext1-v1/V08-00-16/merged_ntuple_61.root
p360
aV/hadoop/cms/store/group/snt/run2_moriond17/TTJets_SingleLeptFromTbar_TuneCUETP8M1_13TeV-madgraphMLM-pythia8_RunIISummer16MiniAODv2-PUMoriond17_80X_mcRun2_asymptotic_2016_TrancheIV_v6_ext1-v1/V08-00-16/merged_ntuple_62.root
p361
aV/hadoop/cms/store/group/snt/run2_moriond17/TTJets_SingleLeptFromTbar_TuneCUETP8M1_13TeV-madgraphMLM-pythia8_RunIISummer16MiniAODv2-PUMoriond17_80X_mcRun2_asymptotic_2016_TrancheIV_v6_ext1-v1/V08-00-16/merged_ntuple_63.root
p362
aV/hadoop/cms/store/group/snt/run2_moriond17/TTJets_SingleLeptFromTbar_TuneCUETP8M1_13TeV-madgraphMLM-pythia8_RunIISummer16MiniAODv2-PUMoriond17_80X_mcRun2_asymptotic_2016_TrancheIV_v6_ext1-v1/V08-00-16/merged_ntuple_64.root
p363
aV/hadoop/cms/store/group/snt/run2_moriond17/TTJets_SingleLeptFromTbar_TuneCUETP8M1_13TeV-madgraphMLM-pythia8_RunIISummer16MiniAODv2-PUMoriond17_80X_mcRun2_asymptotic_2016_TrancheIV_v6_ext1-v1/V08-00-16/merged_ntuple_65.root
p364
aV/hadoop/cms/store/group/snt/run2_moriond17/TTJets_SingleLeptFromTbar_TuneCUETP8M1_13TeV-madgraphMLM-pythia8_RunIISummer16MiniAODv2-PUMoriond17_80X_mcRun2_asymptotic_2016_TrancheIV_v6_ext1-v1/V08-00-16/merged_ntuple_66.root
p365
aV/hadoop/cms/store/group/snt/run2_moriond17/TTJets_SingleLeptFromTbar_TuneCUETP8M1_13TeV-madgraphMLM-pythia8_RunIISummer16MiniAODv2-PUMoriond17_80X_mcRun2_asymptotic_2016_TrancheIV_v6_ext1-v1/V08-00-16/merged_ntuple_67.root
p366
aV/hadoop/cms/store/group/snt/run2_moriond17/TTJets_SingleLeptFromTbar_TuneCUETP8M1_13TeV-madgraphMLM-pythia8_RunIISummer16MiniAODv2-PUMoriond17_80X_mcRun2_asymptotic_2016_TrancheIV_v6_ext1-v1/V08-00-16/merged_ntuple_68.root
p367
aV/hadoop/cms/store/group/snt/run2_moriond17/TTJets_SingleLeptFromTbar_TuneCUETP8M1_13TeV-madgraphMLM-pythia8_RunIISummer16MiniAODv2-PUMoriond17_80X_mcRun2_asymptotic_2016_TrancheIV_v6_ext1-v1/V08-00-16/merged_ntuple_69.root
p368
aV/hadoop/cms/store/group/snt/run2_moriond17/TTJets_SingleLeptFromTbar_TuneCUETP8M1_13TeV-madgraphMLM-pythia8_RunIISummer16MiniAODv2-PUMoriond17_80X_mcRun2_asymptotic_2016_TrancheIV_v6_ext1-v1/V08-00-16/merged_ntuple_7.root
p369
aV/hadoop/cms/store/group/snt/run2_moriond17/TTJets_SingleLeptFromTbar_TuneCUETP8M1_13TeV-madgraphMLM-pythia8_RunIISummer16MiniAODv2-PUMoriond17_80X_mcRun2_asymptotic_2016_TrancheIV_v6_ext1-v1/V08-00-16/merged_ntuple_70.root
p370
aV/hadoop/cms/store/group/snt/run2_moriond17/TTJets_SingleLeptFromTbar_TuneCUETP8M1_13TeV-madgraphMLM-pythia8_RunIISummer16MiniAODv2-PUMoriond17_80X_mcRun2_asymptotic_2016_TrancheIV_v6_ext1-v1/V08-00-16/merged_ntuple_71.root
p371
aV/hadoop/cms/store/group/snt/run2_moriond17/TTJets_SingleLeptFromTbar_TuneCUETP8M1_13TeV-madgraphMLM-pythia8_RunIISummer16MiniAODv2-PUMoriond17_80X_mcRun2_asymptotic_2016_TrancheIV_v6_ext1-v1/V08-00-16/merged_ntuple_72.root
p372
aV/hadoop/cms/store/group/snt/run2_moriond17/TTJets_SingleLeptFromTbar_TuneCUETP8M1_13TeV-madgraphMLM-pythia8_RunIISummer16MiniAODv2-PUMoriond17_80X_mcRun2_asymptotic_2016_TrancheIV_v6_ext1-v1/V08-00-16/merged_ntuple_73.root
p373
aV/hadoop/cms/store/group/snt/run2_moriond17/TTJets_SingleLeptFromTbar_TuneCUETP8M1_13TeV-madgraphMLM-pythia8_RunIISummer16MiniAODv2-PUMoriond17_80X_mcRun2_asymptotic_2016_TrancheIV_v6_ext1-v1/V08-00-16/merged_ntuple_74.root
p374
aV/hadoop/cms/store/group/snt/run2_moriond17/TTJets_SingleLeptFromTbar_TuneCUETP8M1_13TeV-madgraphMLM-pythia8_RunIISummer16MiniAODv2-PUMoriond17_80X_mcRun2_asymptotic_2016_TrancheIV_v6_ext1-v1/V08-00-16/merged_ntuple_75.root
p375
aV/hadoop/cms/store/group/snt/run2_moriond17/TTJets_SingleLeptFromTbar_TuneCUETP8M1_13TeV-madgraphMLM-pythia8_RunIISummer16MiniAODv2-PUMoriond17_80X_mcRun2_asymptotic_2016_TrancheIV_v6_ext1-v1/V08-00-16/merged_ntuple_76.root
p376
aV/hadoop/cms/store/group/snt/run2_moriond17/TTJets_SingleLeptFromTbar_TuneCUETP8M1_13TeV-madgraphMLM-pythia8_RunIISummer16MiniAODv2-PUMoriond17_80X_mcRun2_asymptotic_2016_TrancheIV_v6_ext1-v1/V08-00-16/merged_ntuple_77.root
p377
aV/hadoop/cms/store/group/snt/run2_moriond17/TTJets_SingleLeptFromTbar_TuneCUETP8M1_13TeV-madgraphMLM-pythia8_RunIISummer16MiniAODv2-PUMoriond17_80X_mcRun2_asymptotic_2016_TrancheIV_v6_ext1-v1/V08-00-16/merged_ntuple_78.root
p378
aV/hadoop/cms/store/group/snt/run2_moriond17/TTJets_SingleLeptFromTbar_TuneCUETP8M1_13TeV-madgraphMLM-pythia8_RunIISummer16MiniAODv2-PUMoriond17_80X_mcRun2_asymptotic_2016_TrancheIV_v6_ext1-v1/V08-00-16/merged_ntuple_79.root
p379
aV/hadoop/cms/store/group/snt/run2_moriond17/TTJets_SingleLeptFromTbar_TuneCUETP8M1_13TeV-madgraphMLM-pythia8_RunIISummer16MiniAODv2-PUMoriond17_80X_mcRun2_asymptotic_2016_TrancheIV_v6_ext1-v1/V08-00-16/merged_ntuple_8.root
p380
aV/hadoop/cms/store/group/snt/run2_moriond17/TTJets_SingleLeptFromTbar_TuneCUETP8M1_13TeV-madgraphMLM-pythia8_RunIISummer16MiniAODv2-PUMoriond17_80X_mcRun2_asymptotic_2016_TrancheIV_v6_ext1-v1/V08-00-16/merged_ntuple_80.root
p381
aV/hadoop/cms/store/group/snt/run2_moriond17/TTJets_SingleLeptFromTbar_TuneCUETP8M1_13TeV-madgraphMLM-pythia8_RunIISummer16MiniAODv2-PUMoriond17_80X_mcRun2_asymptotic_2016_TrancheIV_v6_ext1-v1/V08-00-16/merged_ntuple_81.root
p382
aV/hadoop/cms/store/group/snt/run2_moriond17/TTJets_SingleLeptFromTbar_TuneCUETP8M1_13TeV-madgraphMLM-pythia8_RunIISummer16MiniAODv2-PUMoriond17_80X_mcRun2_asymptotic_2016_TrancheIV_v6_ext1-v1/V08-00-16/merged_ntuple_82.root
p383
aV/hadoop/cms/store/group/snt/run2_moriond17/TTJets_SingleLeptFromTbar_TuneCUETP8M1_13TeV-madgraphMLM-pythia8_RunIISummer16MiniAODv2-PUMoriond17_80X_mcRun2_asymptotic_2016_TrancheIV_v6_ext1-v1/V08-00-16/merged_ntuple_83.root
p384
aV/hadoop/cms/store/group/snt/run2_moriond17/TTJets_SingleLeptFromTbar_TuneCUETP8M1_13TeV-madgraphMLM-pythia8_RunIISummer16MiniAODv2-PUMoriond17_80X_mcRun2_asymptotic_2016_TrancheIV_v6_ext1-v1/V08-00-16/merged_ntuple_84.root
p385
aV/hadoop/cms/store/group/snt/run2_moriond17/TTJets_SingleLeptFromTbar_TuneCUETP8M1_13TeV-madgraphMLM-pythia8_RunIISummer16MiniAODv2-PUMoriond17_80X_mcRun2_asymptotic_2016_TrancheIV_v6_ext1-v1/V08-00-16/merged_ntuple_85.root
p386
aV/hadoop/cms/store/group/snt/run2_moriond17/TTJets_SingleLeptFromTbar_TuneCUETP8M1_13TeV-madgraphMLM-pythia8_RunIISummer16MiniAODv2-PUMoriond17_80X_mcRun2_asymptotic_2016_TrancheIV_v6_ext1-v1/V08-00-16/merged_ntuple_86.root
p387
aV/hadoop/cms/store/group/snt/run2_moriond17/TTJets_SingleLeptFromTbar_TuneCUETP8M1_13TeV-madgraphMLM-pythia8_RunIISummer16MiniAODv2-PUMoriond17_80X_mcRun2_asymptotic_2016_TrancheIV_v6_ext1-v1/V08-00-16/merged_ntuple_87.root
p388
aV/hadoop/cms/store/group/snt/run2_moriond17/TTJets_SingleLeptFromTbar_TuneCUETP8M1_13TeV-madgraphMLM-pythia8_RunIISummer16MiniAODv2-PUMoriond17_80X_mcRun2_asymptotic_2016_TrancheIV_v6_ext1-v1/V08-00-16/merged_ntuple_88.root
p389
aV/hadoop/cms/store/group/snt/run2_moriond17/TTJets_SingleLeptFromTbar_TuneCUETP8M1_13TeV-madgraphMLM-pythia8_RunIISummer16MiniAODv2-PUMoriond17_80X_mcRun2_asymptotic_2016_TrancheIV_v6_ext1-v1/V08-00-16/merged_ntuple_89.root
p390
aV/hadoop/cms/store/group/snt/run2_moriond17/TTJets_SingleLeptFromTbar_TuneCUETP8M1_13TeV-madgraphMLM-pythia8_RunIISummer16MiniAODv2-PUMoriond17_80X_mcRun2_asymptotic_2016_TrancheIV_v6_ext1-v1/V08-00-16/merged_ntuple_9.root
p391
aV/hadoop/cms/store/group/snt/run2_moriond17/TTJets_SingleLeptFromTbar_TuneCUETP8M1_13TeV-madgraphMLM-pythia8_RunIISummer16MiniAODv2-PUMoriond17_80X_mcRun2_asymptotic_2016_TrancheIV_v6_ext1-v1/V08-00-16/merged_ntuple_90.root
p392
aV/hadoop/cms/store/group/snt/run2_moriond17/TTJets_SingleLeptFromTbar_TuneCUETP8M1_13TeV-madgraphMLM-pythia8_RunIISummer16MiniAODv2-PUMoriond17_80X_mcRun2_asymptotic_2016_TrancheIV_v6_ext1-v1/V08-00-16/merged_ntuple_91.root
p393
aV/hadoop/cms/store/group/snt/run2_moriond17/TTJets_SingleLeptFromTbar_TuneCUETP8M1_13TeV-madgraphMLM-pythia8_RunIISummer16MiniAODv2-PUMoriond17_80X_mcRun2_asymptotic_2016_TrancheIV_v6_ext1-v1/V08-00-16/merged_ntuple_92.root
p394
aV/hadoop/cms/store/group/snt/run2_moriond17/TTJets_SingleLeptFromTbar_TuneCUETP8M1_13TeV-madgraphMLM-pythia8_RunIISummer16MiniAODv2-PUMoriond17_80X_mcRun2_asymptotic_2016_TrancheIV_v6_ext1-v1/V08-00-16/merged_ntuple_93.root
p395
aV/hadoop/cms/store/group/snt/run2_moriond17/TTJets_SingleLeptFromTbar_TuneCUETP8M1_13TeV-madgraphMLM-pythia8_RunIISummer16MiniAODv2-PUMoriond17_80X_mcRun2_asymptotic_2016_TrancheIV_v6_ext1-v1/V08-00-16/merged_ntuple_94.root
p396
aV/hadoop/cms/store/group/snt/run2_moriond17/TTJets_SingleLeptFromTbar_TuneCUETP8M1_13TeV-madgraphMLM-pythia8_RunIISummer16MiniAODv2-PUMoriond17_80X_mcRun2_asymptotic_2016_TrancheIV_v6_ext1-v1/V08-00-16/merged_ntuple_95.root
p397
aV/hadoop/cms/store/group/snt/run2_moriond17/TTJets_SingleLeptFromTbar_TuneCUETP8M1_13TeV-madgraphMLM-pythia8_RunIISummer16MiniAODv2-PUMoriond17_80X_mcRun2_asymptotic_2016_TrancheIV_v6_ext1-v1/V08-00-16/merged_ntuple_96.root
p398
aV/hadoop/cms/store/group/snt/run2_moriond17/TTJets_SingleLeptFromTbar_TuneCUETP8M1_13TeV-madgraphMLM-pythia8_RunIISummer16MiniAODv2-PUMoriond17_80X_mcRun2_asymptotic_2016_TrancheIV_v6_ext1-v1/V08-00-16/merged_ntuple_97.root
p399
aV/hadoop/cms/store/group/snt/run2_moriond17/TTJets_SingleLeptFromTbar_TuneCUETP8M1_13TeV-madgraphMLM-pythia8_RunIISummer16MiniAODv2-PUMoriond17_80X_mcRun2_asymptotic_2016_TrancheIV_v6_ext1-v1/V08-00-16/merged_ntuple_98.root
p400
aV/hadoop/cms/store/group/snt/run2_moriond17/TTJets_SingleLeptFromTbar_TuneCUETP8M1_13TeV-madgraphMLM-pythia8_RunIISummer16MiniAODv2-PUMoriond17_80X_mcRun2_asymptotic_2016_TrancheIV_v6_ext1-v1/V08-00-16/merged_ntuple_99.root
p401
assS'nevents_unmerged'
p402
I0
sg117
g118
sS'postprocessing'
p403
(dp404
g109
I0
sg95
I26
sg72
I26
sg124
I0
ssS'nevents_merged'
p405
I0
sS'nevents_DAS'
p406
I0
ssS'misc'
p407
(dp408
S'rootfiles'
p409
(lp410
sS'crab_config'
p411
NsS'last_saved'
p412
I1503478644
sS'handled_more_than_1k'
p413
I00
sS'can_skip_tail'
p414
I00
sS'email_when_done'
p415
I00
sS'update_dis_when_done'
p416
I00
sS'pfx_babies'
p417
S'babies'
p418
sS'logfiles'
p419
(lp420
sS'pfx_pset'
p421
g7
sS'pfx_crab'
p422
g49
ss.