(dp0
S'sample'
p1
(dp2
S'gtag'
p3
NsS'isdata'
p4
I00
sS'dataset'
p5
S'/WJetsToLNu_HT-400To600_TuneCUETP8M1_13TeV-madgraphMLM-pythia8/RunIISummer16MiniAODv2-PUMoriond17_80X_mcRun2_asymptotic_2016_TrancheIV_v6-v1/MINIAODSIM'
p6
sS'pset'
p7
S''
p8
sS'finaldir'
p9
g8
sS'ijob_to_nevents'
p10
(dp11
sS'basedir'
p12
S'/home/users/dpgilber/MT2AnalysisEdit/babymaker/batchsubmit/'
p13
sS'kfact'
p14
NsS'imerged_to_ijob'
p15
(dp16
S'output'
p17
(dp18
I1
(lp19
I1
aI10
aI11
aI12
aI2
aI3
aI4
aI5
aI6
aI7
aI8
aI9
assS'skim'
p20
(dp21
I1
(lp22
I1
aI10
aI11
aI12
aI2
aI3
aI4
aI5
aI6
aI7
aI8
aI9
assS'skim_rphi'
p23
(dp24
I1
(lp25
I1
aI10
aI11
aI12
aI2
aI3
aI4
aI5
aI6
aI7
aI8
aI9
asssS'crab'
p26
(dp27
S'resubmissions'
p28
I0
sS'datetime'
p29
NsS'jobs_left'
p30
(lp31
sS'requestname'
p32
S'WJetsToLNu_HT-400To600_TuneCUETP8M1_13TeV-madgraphMLM-pythia8_RunIISummer16MiniAODv2-PUMoriond17_80'
p33
sS'taskdir'
p34
S'babies/babies_WJetsToLNu_HT-400To600_TuneCUETP8M1_13TeV-madgraphMLM-pythia8_RunIISummer16MiniAODv2-PUMoriond17_80_AllPF'
p35
sS'outputdir'
p36
NsS'jobs_left_tail'
p37
(lp38
ssS'shortname'
p39
S'WJetsToLNu_HT-400To600_TuneCUETP8M1_13TeV-madgraphMLM-pythia8_RunIISummer16MiniAODv2-PUMoriond17_80X_mcRun2_asymptotic_2016_TrancheIV_v6-v1'
p40
sS'xsec'
p41
NsS'type'
p42
S'BABY'
p43
sS'checks'
p44
(dp45
sS'sparms'
p46
(lp47
sS'status'
p48
S'done'
p49
sS'ijob_to_miniaod'
p50
(dp51
sS'cms3tag'
p52
VCMS3_V08-00-16
p53
sS'specialdir'
p54
g8
sS'user'
p55
S'dpgilber'
p56
sS'efact'
p57
NsS'baby'
p58
(dp59
S'condor_done'
p60
I12
sS'outputdir_pattern'
p61
S'/hadoop/cms/store/user/dpgilber/AutoTwopler_babies/${ANALYSIS}_${BABY_TAG}/${SHORTNAME}/'
p62
sS'user_executable'
p63
S'/home/users/dpgilber/MT2AnalysisEdit/babymaker/batchsubmit/job_input/wrapper_auto.sh'
p64
sg5
g6
sS'scramarch'
p65
S'slc6_amd64_gcc530'
p66
sS'sweepRoot_script'
p67
S'/home/users/dpgilber/MT2AnalysisEdit/babymaker/batchsubmit//babies/sweepRoot.sh'
p68
sS'executable_script'
p69
S'/home/users/dpgilber/MT2AnalysisEdit/babymaker/batchsubmit//babies/baby_ducks.sh'
p70
sg9
S'/hadoop/cms/store/user/dpgilber/AutoTwopler_babies/MT2_AllPF/WJetsToLNu_HT-400To600_TuneCUETP8M1_13TeV-madgraphMLM-pythia8_RunIISummer16MiniAODv2-PUMoriond17_80X_mcRun2_asymptotic_2016_TrancheIV_v6-v1/'
p71
sS'total'
p72
I12
sS'nevents'
p73
I-1
sS'output_names_nosplit'
p74
S'output.root,skim.root,skim_rphi.root'
p75
sS'imerged'
p76
(lp77
I1
aI10
aI11
aI12
aI2
aI3
aI4
aI5
aI6
aI7
aI8
aI9
asS'sweepRooted'
p78
I12
sS'exe_args'
p79
(lp80
g8
asS'merged_dir'
p81
S'/hadoop/cms/store/user/dpgilber/AutoTwopler_babies/merged//MT2/AllPF/'
p82
sS'user_package'
p83
S'/home/users/dpgilber/MT2AnalysisEdit/babymaker/batchsubmit/job_input/package.tar.gz'
p84
sS'exe_args_nosplit'
p85
g8
sS'running'
p86
I0
sS'output_names'
p87
(lp88
S'output.root'
p89
aS'skim.root'
p90
aS'skim_rphi.root'
p91
asS'package'
p92
S'/home/users/dpgilber/MT2AnalysisEdit/babymaker/batchsubmit//babies/package.tar.gz'
p93
sS'cmsswver'
p94
S'CMSSW_8_0_21'
p95
sS'have_set_inputs'
p96
I01
sS'analysis'
p97
S'MT2'
p98
sS'merging_script'
p99
S'/home/users/dpgilber/MT2AnalysisEdit/babymaker/batchsubmit//babies/merging_script.sh'
p100
sS'idle'
p101
I0
sS'baby_tag'
p102
S'AllPF'
p103
sS'imerged_swept'
p104
(lp105
I2
aI3
aI4
aI5
aI8
aI10
aI1
aI12
aI6
aI9
aI11
aI7
asS'input_filenames'
p106
(lp107
V/hadoop/cms/store/group/snt/run2_moriond17/WJetsToLNu_HT-400To600_TuneCUETP8M1_13TeV-madgraphMLM-pythia8_RunIISummer16MiniAODv2-PUMoriond17_80X_mcRun2_asymptotic_2016_TrancheIV_v6-v1/V08-00-16/merged_ntuple_1.root
p108
aV/hadoop/cms/store/group/snt/run2_moriond17/WJetsToLNu_HT-400To600_TuneCUETP8M1_13TeV-madgraphMLM-pythia8_RunIISummer16MiniAODv2-PUMoriond17_80X_mcRun2_asymptotic_2016_TrancheIV_v6-v1/V08-00-16/merged_ntuple_10.root
p109
aV/hadoop/cms/store/group/snt/run2_moriond17/WJetsToLNu_HT-400To600_TuneCUETP8M1_13TeV-madgraphMLM-pythia8_RunIISummer16MiniAODv2-PUMoriond17_80X_mcRun2_asymptotic_2016_TrancheIV_v6-v1/V08-00-16/merged_ntuple_11.root
p110
aV/hadoop/cms/store/group/snt/run2_moriond17/WJetsToLNu_HT-400To600_TuneCUETP8M1_13TeV-madgraphMLM-pythia8_RunIISummer16MiniAODv2-PUMoriond17_80X_mcRun2_asymptotic_2016_TrancheIV_v6-v1/V08-00-16/merged_ntuple_12.root
p111
aV/hadoop/cms/store/group/snt/run2_moriond17/WJetsToLNu_HT-400To600_TuneCUETP8M1_13TeV-madgraphMLM-pythia8_RunIISummer16MiniAODv2-PUMoriond17_80X_mcRun2_asymptotic_2016_TrancheIV_v6-v1/V08-00-16/merged_ntuple_2.root
p112
aV/hadoop/cms/store/group/snt/run2_moriond17/WJetsToLNu_HT-400To600_TuneCUETP8M1_13TeV-madgraphMLM-pythia8_RunIISummer16MiniAODv2-PUMoriond17_80X_mcRun2_asymptotic_2016_TrancheIV_v6-v1/V08-00-16/merged_ntuple_3.root
p113
aV/hadoop/cms/store/group/snt/run2_moriond17/WJetsToLNu_HT-400To600_TuneCUETP8M1_13TeV-madgraphMLM-pythia8_RunIISummer16MiniAODv2-PUMoriond17_80X_mcRun2_asymptotic_2016_TrancheIV_v6-v1/V08-00-16/merged_ntuple_4.root
p114
aV/hadoop/cms/store/group/snt/run2_moriond17/WJetsToLNu_HT-400To600_TuneCUETP8M1_13TeV-madgraphMLM-pythia8_RunIISummer16MiniAODv2-PUMoriond17_80X_mcRun2_asymptotic_2016_TrancheIV_v6-v1/V08-00-16/merged_ntuple_5.root
p115
aV/hadoop/cms/store/group/snt/run2_moriond17/WJetsToLNu_HT-400To600_TuneCUETP8M1_13TeV-madgraphMLM-pythia8_RunIISummer16MiniAODv2-PUMoriond17_80X_mcRun2_asymptotic_2016_TrancheIV_v6-v1/V08-00-16/merged_ntuple_6.root
p116
aV/hadoop/cms/store/group/snt/run2_moriond17/WJetsToLNu_HT-400To600_TuneCUETP8M1_13TeV-madgraphMLM-pythia8_RunIISummer16MiniAODv2-PUMoriond17_80X_mcRun2_asymptotic_2016_TrancheIV_v6-v1/V08-00-16/merged_ntuple_7.root
p117
aV/hadoop/cms/store/group/snt/run2_moriond17/WJetsToLNu_HT-400To600_TuneCUETP8M1_13TeV-madgraphMLM-pythia8_RunIISummer16MiniAODv2-PUMoriond17_80X_mcRun2_asymptotic_2016_TrancheIV_v6-v1/V08-00-16/merged_ntuple_8.root
p118
aV/hadoop/cms/store/group/snt/run2_moriond17/WJetsToLNu_HT-400To600_TuneCUETP8M1_13TeV-madgraphMLM-pythia8_RunIISummer16MiniAODv2-PUMoriond17_80X_mcRun2_asymptotic_2016_TrancheIV_v6-v1/V08-00-16/merged_ntuple_9.root
p119
assS'nevents_unmerged'
p120
I0
sg94
g95
sS'postprocessing'
p121
(dp122
g86
I0
sg72
I3
sg49
I3
sg101
I0
ssS'nevents_merged'
p123
I0
sS'nevents_DAS'
p124
I0
ssS'misc'
p125
(dp126
S'rootfiles'
p127
(lp128
sS'crab_config'
p129
NsS'last_saved'
p130
I1503478644
sS'handled_more_than_1k'
p131
I00
sS'can_skip_tail'
p132
I00
sS'email_when_done'
p133
I00
sS'update_dis_when_done'
p134
I00
sS'pfx_babies'
p135
S'babies'
p136
sS'logfiles'
p137
(lp138
sS'pfx_pset'
p139
g7
sS'pfx_crab'
p140
g26
ss.