(dp0
S'sample'
p1
(dp2
S'gtag'
p3
NsS'isdata'
p4
I00
sS'dataset'
p5
S'/WJetsToLNu_HT-200To400_TuneCUETP8M1_13TeV-madgraphMLM-pythia8/RunIISummer16MiniAODv2-PUMoriond17_80X_mcRun2_asymptotic_2016_TrancheIV_v6-v1/MINIAODSIM'
p6
sS'pset'
p7
S''
p8
sS'finaldir'
p9
g8
sS'ijob_to_nevents'
p10
(dp11
sS'basedir'
p12
S'/home/users/dpgilber/MT2AnalysisEdit/babymaker/batchsubmit/'
p13
sS'kfact'
p14
NsS'imerged_to_ijob'
p15
(dp16
S'output'
p17
(dp18
I1
(lp19
I1
aI10
aI11
aI12
aI13
aI14
aI15
aI16
aI17
aI18
aI19
aI2
aI20
aI21
aI22
aI23
aI24
asI2
(lp20
I25
aI26
aI27
aI28
aI29
aI3
aI30
aI31
aI32
aI33
aI34
aI4
aI5
aI6
aI7
aI8
aI9
assS'skim'
p21
(dp22
I1
(lp23
I1
aI10
aI11
aI12
aI13
aI14
aI15
aI16
aI17
aI18
aI19
aI2
aI20
aI21
aI22
aI23
aI24
aI25
aI26
aI27
aI28
aI29
aI3
aI30
aI31
aI32
aI33
aI34
aI4
aI5
aI6
aI7
aI8
aI9
assS'skim_rphi'
p24
(dp25
I1
(lp26
I1
aI10
aI11
aI12
aI13
aI14
aI15
aI16
aI17
aI18
aI19
aI2
aI20
aI21
aI22
aI23
aI24
aI25
aI26
aI27
aI28
aI29
aI3
aI30
aI31
aI32
aI33
aI34
aI4
aI5
aI6
aI7
aI8
aI9
asssS'crab'
p27
(dp28
S'resubmissions'
p29
I0
sS'datetime'
p30
NsS'jobs_left'
p31
(lp32
sS'requestname'
p33
S'WJetsToLNu_HT-200To400_TuneCUETP8M1_13TeV-madgraphMLM-pythia8_RunIISummer16MiniAODv2-PUMoriond17_80'
p34
sS'taskdir'
p35
S'babies/babies_WJetsToLNu_HT-200To400_TuneCUETP8M1_13TeV-madgraphMLM-pythia8_RunIISummer16MiniAODv2-PUMoriond17_80_AllPF'
p36
sS'outputdir'
p37
NsS'jobs_left_tail'
p38
(lp39
ssS'shortname'
p40
S'WJetsToLNu_HT-200To400_TuneCUETP8M1_13TeV-madgraphMLM-pythia8_RunIISummer16MiniAODv2-PUMoriond17_80X_mcRun2_asymptotic_2016_TrancheIV_v6-v1'
p41
sS'xsec'
p42
NsS'type'
p43
S'BABY'
p44
sS'checks'
p45
(dp46
sS'sparms'
p47
(lp48
sS'status'
p49
S'done'
p50
sS'ijob_to_miniaod'
p51
(dp52
sS'cms3tag'
p53
VCMS3_V08-00-16
p54
sS'specialdir'
p55
g8
sS'user'
p56
S'dpgilber'
p57
sS'efact'
p58
NsS'baby'
p59
(dp60
S'condor_done'
p61
I34
sS'sweepRoot_script'
p62
S'/home/users/dpgilber/MT2AnalysisEdit/babymaker/batchsubmit//babies/sweepRoot.sh'
p63
sS'user_executable'
p64
S'/home/users/dpgilber/MT2AnalysisEdit/babymaker/batchsubmit/job_input/wrapper_auto.sh'
p65
sS'dataset'
p66
g6
sS'scramarch'
p67
S'slc6_amd64_gcc530'
p68
sS'outputdir_pattern'
p69
S'/hadoop/cms/store/user/dpgilber/AutoTwopler_babies/${ANALYSIS}_${BABY_TAG}/${SHORTNAME}/'
p70
sS'total'
p71
I34
sS'finaldir'
p72
S'/hadoop/cms/store/user/dpgilber/AutoTwopler_babies/MT2_AllPF/WJetsToLNu_HT-200To400_TuneCUETP8M1_13TeV-madgraphMLM-pythia8_RunIISummer16MiniAODv2-PUMoriond17_80X_mcRun2_asymptotic_2016_TrancheIV_v6-v1/'
p73
sS'merging_script'
p74
S'/home/users/dpgilber/MT2AnalysisEdit/babymaker/batchsubmit//babies/merging_script.sh'
p75
sS'idle'
p76
I0
sS'output_names_nosplit'
p77
S'output.root,skim.root,skim_rphi.root'
p78
sS'imerged'
p79
(lp80
I1
aI10
aI11
aI12
aI13
aI14
aI15
aI16
aI17
aI18
aI19
aI2
aI20
aI21
aI22
aI23
aI24
aI25
aI26
aI27
aI28
aI29
aI3
aI30
aI31
aI32
aI33
aI34
aI4
aI5
aI6
aI7
aI8
aI9
asS'sweepRooted'
p81
I34
sS'exe_args'
p82
(lp83
g8
asS'merged_dir'
p84
S'/hadoop/cms/store/user/dpgilber/AutoTwopler_babies/merged//MT2/AllPF/'
p85
sS'user_package'
p86
S'/home/users/dpgilber/MT2AnalysisEdit/babymaker/batchsubmit/job_input/package.tar.gz'
p87
sS'exe_args_nosplit'
p88
g8
sS'running'
p89
I0
sS'output_names'
p90
(lp91
S'output.root'
p92
aS'skim.root'
p93
aS'skim_rphi.root'
p94
asS'package'
p95
S'/home/users/dpgilber/MT2AnalysisEdit/babymaker/batchsubmit//babies/package.tar.gz'
p96
sS'cmsswver'
p97
S'CMSSW_8_0_21'
p98
sS'have_set_inputs'
p99
I01
sS'analysis'
p100
S'MT2'
p101
sS'executable_script'
p102
S'/home/users/dpgilber/MT2AnalysisEdit/babymaker/batchsubmit//babies/baby_ducks.sh'
p103
sS'nevents'
p104
I-1
sS'baby_tag'
p105
S'AllPF'
p106
sS'imerged_swept'
p107
(lp108
I34
aI3
aI7
aI8
aI9
aI11
aI16
aI19
aI21
aI23
aI32
aI33
aI4
aI6
aI12
aI17
aI18
aI22
aI24
aI25
aI26
aI27
aI28
aI29
aI31
aI1
aI2
aI5
aI10
aI13
aI14
aI15
aI20
aI30
asS'input_filenames'
p109
(lp110
V/hadoop/cms/store/group/snt/run2_moriond17/WJetsToLNu_HT-200To400_TuneCUETP8M1_13TeV-madgraphMLM-pythia8_RunIISummer16MiniAODv2-PUMoriond17_80X_mcRun2_asymptotic_2016_TrancheIV_v6-v1/V08-00-16/merged_ntuple_1.root
p111
aV/hadoop/cms/store/group/snt/run2_moriond17/WJetsToLNu_HT-200To400_TuneCUETP8M1_13TeV-madgraphMLM-pythia8_RunIISummer16MiniAODv2-PUMoriond17_80X_mcRun2_asymptotic_2016_TrancheIV_v6-v1/V08-00-16/merged_ntuple_10.root
p112
aV/hadoop/cms/store/group/snt/run2_moriond17/WJetsToLNu_HT-200To400_TuneCUETP8M1_13TeV-madgraphMLM-pythia8_RunIISummer16MiniAODv2-PUMoriond17_80X_mcRun2_asymptotic_2016_TrancheIV_v6-v1/V08-00-16/merged_ntuple_11.root
p113
aV/hadoop/cms/store/group/snt/run2_moriond17/WJetsToLNu_HT-200To400_TuneCUETP8M1_13TeV-madgraphMLM-pythia8_RunIISummer16MiniAODv2-PUMoriond17_80X_mcRun2_asymptotic_2016_TrancheIV_v6-v1/V08-00-16/merged_ntuple_12.root
p114
aV/hadoop/cms/store/group/snt/run2_moriond17/WJetsToLNu_HT-200To400_TuneCUETP8M1_13TeV-madgraphMLM-pythia8_RunIISummer16MiniAODv2-PUMoriond17_80X_mcRun2_asymptotic_2016_TrancheIV_v6-v1/V08-00-16/merged_ntuple_13.root
p115
aV/hadoop/cms/store/group/snt/run2_moriond17/WJetsToLNu_HT-200To400_TuneCUETP8M1_13TeV-madgraphMLM-pythia8_RunIISummer16MiniAODv2-PUMoriond17_80X_mcRun2_asymptotic_2016_TrancheIV_v6-v1/V08-00-16/merged_ntuple_14.root
p116
aV/hadoop/cms/store/group/snt/run2_moriond17/WJetsToLNu_HT-200To400_TuneCUETP8M1_13TeV-madgraphMLM-pythia8_RunIISummer16MiniAODv2-PUMoriond17_80X_mcRun2_asymptotic_2016_TrancheIV_v6-v1/V08-00-16/merged_ntuple_15.root
p117
aV/hadoop/cms/store/group/snt/run2_moriond17/WJetsToLNu_HT-200To400_TuneCUETP8M1_13TeV-madgraphMLM-pythia8_RunIISummer16MiniAODv2-PUMoriond17_80X_mcRun2_asymptotic_2016_TrancheIV_v6-v1/V08-00-16/merged_ntuple_16.root
p118
aV/hadoop/cms/store/group/snt/run2_moriond17/WJetsToLNu_HT-200To400_TuneCUETP8M1_13TeV-madgraphMLM-pythia8_RunIISummer16MiniAODv2-PUMoriond17_80X_mcRun2_asymptotic_2016_TrancheIV_v6-v1/V08-00-16/merged_ntuple_17.root
p119
aV/hadoop/cms/store/group/snt/run2_moriond17/WJetsToLNu_HT-200To400_TuneCUETP8M1_13TeV-madgraphMLM-pythia8_RunIISummer16MiniAODv2-PUMoriond17_80X_mcRun2_asymptotic_2016_TrancheIV_v6-v1/V08-00-16/merged_ntuple_18.root
p120
aV/hadoop/cms/store/group/snt/run2_moriond17/WJetsToLNu_HT-200To400_TuneCUETP8M1_13TeV-madgraphMLM-pythia8_RunIISummer16MiniAODv2-PUMoriond17_80X_mcRun2_asymptotic_2016_TrancheIV_v6-v1/V08-00-16/merged_ntuple_19.root
p121
aV/hadoop/cms/store/group/snt/run2_moriond17/WJetsToLNu_HT-200To400_TuneCUETP8M1_13TeV-madgraphMLM-pythia8_RunIISummer16MiniAODv2-PUMoriond17_80X_mcRun2_asymptotic_2016_TrancheIV_v6-v1/V08-00-16/merged_ntuple_2.root
p122
aV/hadoop/cms/store/group/snt/run2_moriond17/WJetsToLNu_HT-200To400_TuneCUETP8M1_13TeV-madgraphMLM-pythia8_RunIISummer16MiniAODv2-PUMoriond17_80X_mcRun2_asymptotic_2016_TrancheIV_v6-v1/V08-00-16/merged_ntuple_20.root
p123
aV/hadoop/cms/store/group/snt/run2_moriond17/WJetsToLNu_HT-200To400_TuneCUETP8M1_13TeV-madgraphMLM-pythia8_RunIISummer16MiniAODv2-PUMoriond17_80X_mcRun2_asymptotic_2016_TrancheIV_v6-v1/V08-00-16/merged_ntuple_21.root
p124
aV/hadoop/cms/store/group/snt/run2_moriond17/WJetsToLNu_HT-200To400_TuneCUETP8M1_13TeV-madgraphMLM-pythia8_RunIISummer16MiniAODv2-PUMoriond17_80X_mcRun2_asymptotic_2016_TrancheIV_v6-v1/V08-00-16/merged_ntuple_22.root
p125
aV/hadoop/cms/store/group/snt/run2_moriond17/WJetsToLNu_HT-200To400_TuneCUETP8M1_13TeV-madgraphMLM-pythia8_RunIISummer16MiniAODv2-PUMoriond17_80X_mcRun2_asymptotic_2016_TrancheIV_v6-v1/V08-00-16/merged_ntuple_23.root
p126
aV/hadoop/cms/store/group/snt/run2_moriond17/WJetsToLNu_HT-200To400_TuneCUETP8M1_13TeV-madgraphMLM-pythia8_RunIISummer16MiniAODv2-PUMoriond17_80X_mcRun2_asymptotic_2016_TrancheIV_v6-v1/V08-00-16/merged_ntuple_24.root
p127
aV/hadoop/cms/store/group/snt/run2_moriond17/WJetsToLNu_HT-200To400_TuneCUETP8M1_13TeV-madgraphMLM-pythia8_RunIISummer16MiniAODv2-PUMoriond17_80X_mcRun2_asymptotic_2016_TrancheIV_v6-v1/V08-00-16/merged_ntuple_25.root
p128
aV/hadoop/cms/store/group/snt/run2_moriond17/WJetsToLNu_HT-200To400_TuneCUETP8M1_13TeV-madgraphMLM-pythia8_RunIISummer16MiniAODv2-PUMoriond17_80X_mcRun2_asymptotic_2016_TrancheIV_v6-v1/V08-00-16/merged_ntuple_26.root
p129
aV/hadoop/cms/store/group/snt/run2_moriond17/WJetsToLNu_HT-200To400_TuneCUETP8M1_13TeV-madgraphMLM-pythia8_RunIISummer16MiniAODv2-PUMoriond17_80X_mcRun2_asymptotic_2016_TrancheIV_v6-v1/V08-00-16/merged_ntuple_27.root
p130
aV/hadoop/cms/store/group/snt/run2_moriond17/WJetsToLNu_HT-200To400_TuneCUETP8M1_13TeV-madgraphMLM-pythia8_RunIISummer16MiniAODv2-PUMoriond17_80X_mcRun2_asymptotic_2016_TrancheIV_v6-v1/V08-00-16/merged_ntuple_28.root
p131
aV/hadoop/cms/store/group/snt/run2_moriond17/WJetsToLNu_HT-200To400_TuneCUETP8M1_13TeV-madgraphMLM-pythia8_RunIISummer16MiniAODv2-PUMoriond17_80X_mcRun2_asymptotic_2016_TrancheIV_v6-v1/V08-00-16/merged_ntuple_29.root
p132
aV/hadoop/cms/store/group/snt/run2_moriond17/WJetsToLNu_HT-200To400_TuneCUETP8M1_13TeV-madgraphMLM-pythia8_RunIISummer16MiniAODv2-PUMoriond17_80X_mcRun2_asymptotic_2016_TrancheIV_v6-v1/V08-00-16/merged_ntuple_3.root
p133
aV/hadoop/cms/store/group/snt/run2_moriond17/WJetsToLNu_HT-200To400_TuneCUETP8M1_13TeV-madgraphMLM-pythia8_RunIISummer16MiniAODv2-PUMoriond17_80X_mcRun2_asymptotic_2016_TrancheIV_v6-v1/V08-00-16/merged_ntuple_30.root
p134
aV/hadoop/cms/store/group/snt/run2_moriond17/WJetsToLNu_HT-200To400_TuneCUETP8M1_13TeV-madgraphMLM-pythia8_RunIISummer16MiniAODv2-PUMoriond17_80X_mcRun2_asymptotic_2016_TrancheIV_v6-v1/V08-00-16/merged_ntuple_31.root
p135
aV/hadoop/cms/store/group/snt/run2_moriond17/WJetsToLNu_HT-200To400_TuneCUETP8M1_13TeV-madgraphMLM-pythia8_RunIISummer16MiniAODv2-PUMoriond17_80X_mcRun2_asymptotic_2016_TrancheIV_v6-v1/V08-00-16/merged_ntuple_32.root
p136
aV/hadoop/cms/store/group/snt/run2_moriond17/WJetsToLNu_HT-200To400_TuneCUETP8M1_13TeV-madgraphMLM-pythia8_RunIISummer16MiniAODv2-PUMoriond17_80X_mcRun2_asymptotic_2016_TrancheIV_v6-v1/V08-00-16/merged_ntuple_33.root
p137
aV/hadoop/cms/store/group/snt/run2_moriond17/WJetsToLNu_HT-200To400_TuneCUETP8M1_13TeV-madgraphMLM-pythia8_RunIISummer16MiniAODv2-PUMoriond17_80X_mcRun2_asymptotic_2016_TrancheIV_v6-v1/V08-00-16/merged_ntuple_34.root
p138
aV/hadoop/cms/store/group/snt/run2_moriond17/WJetsToLNu_HT-200To400_TuneCUETP8M1_13TeV-madgraphMLM-pythia8_RunIISummer16MiniAODv2-PUMoriond17_80X_mcRun2_asymptotic_2016_TrancheIV_v6-v1/V08-00-16/merged_ntuple_4.root
p139
aV/hadoop/cms/store/group/snt/run2_moriond17/WJetsToLNu_HT-200To400_TuneCUETP8M1_13TeV-madgraphMLM-pythia8_RunIISummer16MiniAODv2-PUMoriond17_80X_mcRun2_asymptotic_2016_TrancheIV_v6-v1/V08-00-16/merged_ntuple_5.root
p140
aV/hadoop/cms/store/group/snt/run2_moriond17/WJetsToLNu_HT-200To400_TuneCUETP8M1_13TeV-madgraphMLM-pythia8_RunIISummer16MiniAODv2-PUMoriond17_80X_mcRun2_asymptotic_2016_TrancheIV_v6-v1/V08-00-16/merged_ntuple_6.root
p141
aV/hadoop/cms/store/group/snt/run2_moriond17/WJetsToLNu_HT-200To400_TuneCUETP8M1_13TeV-madgraphMLM-pythia8_RunIISummer16MiniAODv2-PUMoriond17_80X_mcRun2_asymptotic_2016_TrancheIV_v6-v1/V08-00-16/merged_ntuple_7.root
p142
aV/hadoop/cms/store/group/snt/run2_moriond17/WJetsToLNu_HT-200To400_TuneCUETP8M1_13TeV-madgraphMLM-pythia8_RunIISummer16MiniAODv2-PUMoriond17_80X_mcRun2_asymptotic_2016_TrancheIV_v6-v1/V08-00-16/merged_ntuple_8.root
p143
aV/hadoop/cms/store/group/snt/run2_moriond17/WJetsToLNu_HT-200To400_TuneCUETP8M1_13TeV-madgraphMLM-pythia8_RunIISummer16MiniAODv2-PUMoriond17_80X_mcRun2_asymptotic_2016_TrancheIV_v6-v1/V08-00-16/merged_ntuple_9.root
p144
assS'nevents_unmerged'
p145
I0
sS'cmsswver'
p146
g98
sS'postprocessing'
p147
(dp148
S'running'
p149
I0
sS'total'
p150
I4
sg50
I4
sS'idle'
p151
I0
ssS'nevents_merged'
p152
I0
sS'nevents_DAS'
p153
I0
ssS'misc'
p154
(dp155
S'rootfiles'
p156
(lp157
sS'crab_config'
p158
NsS'last_saved'
p159
I1503478644
sS'handled_more_than_1k'
p160
I00
sS'can_skip_tail'
p161
I00
sS'email_when_done'
p162
I00
sS'update_dis_when_done'
p163
I00
sS'pfx_babies'
p164
S'babies'
p165
sS'logfiles'
p166
(lp167
sS'pfx_pset'
p168
S'pset'
p169
sS'pfx_crab'
p170
S'crab'
p171
ss.