(dp0
S'sample'
p1
(dp2
S'gtag'
p3
NsS'isdata'
p4
I00
sS'dataset'
p5
S'/WJetsToLNu_HT-100To200_TuneCUETP8M1_13TeV-madgraphMLM-pythia8/RunIISummer16MiniAODv2-PUMoriond17_80X_mcRun2_asymptotic_2016_TrancheIV_v6-v1/MINIAODSIM'
p6
sS'pset'
p7
S''
p8
sS'finaldir'
p9
g8
sS'ijob_to_nevents'
p10
(dp11
sS'basedir'
p12
S'/home/users/dpgilber/MT2AnalysisEdit/babymaker/batchsubmit/'
p13
sS'kfact'
p14
NsS'imerged_to_ijob'
p15
(dp16
S'output'
p17
(dp18
I1
(lp19
I1
aI10
aI11
aI12
aI13
aI14
aI15
aI16
aI17
aI18
aI19
aI2
aI20
aI21
aI22
aI23
aI24
asI2
(lp20
I25
aI26
aI27
aI28
aI29
aI3
aI30
aI31
aI32
aI33
aI34
aI35
aI36
aI37
aI38
aI39
aI4
asI3
(lp21
I40
aI41
aI42
aI43
aI44
aI45
aI46
aI47
aI48
aI49
aI5
aI50
aI51
aI52
aI53
aI54
aI55
aI56
asI4
(lp22
I57
aI6
aI7
aI8
aI9
assS'skim'
p23
(dp24
I1
(lp25
I1
aI10
aI11
aI12
aI13
aI14
aI15
aI16
aI17
aI18
aI19
aI2
aI20
aI21
aI22
aI23
aI24
aI25
aI26
aI27
aI28
aI29
aI3
aI30
aI31
aI32
aI33
aI34
aI35
aI36
aI37
aI38
aI39
aI4
aI40
aI41
aI42
aI43
aI44
aI45
aI46
aI47
aI48
aI49
aI5
aI50
aI51
aI52
aI53
aI54
aI55
aI56
aI57
aI6
aI7
aI8
aI9
assS'skim_rphi'
p26
(dp27
I1
(lp28
I1
aI10
aI11
aI12
aI13
aI14
aI15
aI16
aI17
aI18
aI19
aI2
aI20
aI21
aI22
aI23
aI24
aI25
aI26
aI27
aI28
aI29
aI3
aI30
aI31
aI32
aI33
aI34
aI35
aI36
aI37
aI38
aI39
aI4
aI40
aI41
aI42
aI43
aI44
aI45
aI46
aI47
aI48
aI49
aI5
aI50
aI51
aI52
aI53
aI54
aI55
aI56
aI57
aI6
aI7
aI8
aI9
asssS'crab'
p29
(dp30
S'resubmissions'
p31
I0
sS'datetime'
p32
NsS'jobs_left'
p33
(lp34
sS'requestname'
p35
S'WJetsToLNu_HT-100To200_TuneCUETP8M1_13TeV-madgraphMLM-pythia8_RunIISummer16MiniAODv2-PUMoriond17_80'
p36
sS'taskdir'
p37
S'babies/babies_WJetsToLNu_HT-100To200_TuneCUETP8M1_13TeV-madgraphMLM-pythia8_RunIISummer16MiniAODv2-PUMoriond17_80_AllPF'
p38
sS'outputdir'
p39
NsS'jobs_left_tail'
p40
(lp41
ssS'shortname'
p42
S'WJetsToLNu_HT-100To200_TuneCUETP8M1_13TeV-madgraphMLM-pythia8_RunIISummer16MiniAODv2-PUMoriond17_80X_mcRun2_asymptotic_2016_TrancheIV_v6-v1'
p43
sS'xsec'
p44
NsS'type'
p45
S'BABY'
p46
sS'checks'
p47
(dp48
sS'sparms'
p49
(lp50
sS'status'
p51
S'done'
p52
sS'ijob_to_miniaod'
p53
(dp54
sS'cms3tag'
p55
VCMS3_V08-00-16
p56
sS'specialdir'
p57
g8
sS'user'
p58
S'dpgilber'
p59
sS'efact'
p60
NsS'baby'
p61
(dp62
S'condor_done'
p63
I57
sS'outputdir_pattern'
p64
S'/hadoop/cms/store/user/dpgilber/AutoTwopler_babies/${ANALYSIS}_${BABY_TAG}/${SHORTNAME}/'
p65
sS'user_executable'
p66
S'/home/users/dpgilber/MT2AnalysisEdit/babymaker/batchsubmit/job_input/wrapper_auto.sh'
p67
sg5
g6
sS'scramarch'
p68
S'slc6_amd64_gcc530'
p69
sS'sweepRoot_script'
p70
S'/home/users/dpgilber/MT2AnalysisEdit/babymaker/batchsubmit//babies/sweepRoot.sh'
p71
sS'executable_script'
p72
S'/home/users/dpgilber/MT2AnalysisEdit/babymaker/batchsubmit//babies/baby_ducks.sh'
p73
sg9
S'/hadoop/cms/store/user/dpgilber/AutoTwopler_babies/MT2_AllPF/WJetsToLNu_HT-100To200_TuneCUETP8M1_13TeV-madgraphMLM-pythia8_RunIISummer16MiniAODv2-PUMoriond17_80X_mcRun2_asymptotic_2016_TrancheIV_v6-v1/'
p74
sS'total'
p75
I57
sS'nevents'
p76
I-1
sS'output_names_nosplit'
p77
S'output.root,skim.root,skim_rphi.root'
p78
sS'imerged'
p79
(lp80
I1
aI10
aI11
aI12
aI13
aI14
aI15
aI16
aI17
aI18
aI19
aI2
aI20
aI21
aI22
aI23
aI24
aI25
aI26
aI27
aI28
aI29
aI3
aI30
aI31
aI32
aI33
aI34
aI35
aI36
aI37
aI38
aI39
aI4
aI40
aI41
aI42
aI43
aI44
aI45
aI46
aI47
aI48
aI49
aI5
aI50
aI51
aI52
aI53
aI54
aI55
aI56
aI57
aI6
aI7
aI8
aI9
asS'sweepRooted'
p81
I57
sS'exe_args'
p82
(lp83
g8
asS'merged_dir'
p84
S'/hadoop/cms/store/user/dpgilber/AutoTwopler_babies/merged//MT2/AllPF/'
p85
sS'user_package'
p86
S'/home/users/dpgilber/MT2AnalysisEdit/babymaker/batchsubmit/job_input/package.tar.gz'
p87
sS'exe_args_nosplit'
p88
g8
sS'running'
p89
I0
sS'output_names'
p90
(lp91
S'output.root'
p92
aS'skim.root'
p93
aS'skim_rphi.root'
p94
asS'package'
p95
S'/home/users/dpgilber/MT2AnalysisEdit/babymaker/batchsubmit//babies/package.tar.gz'
p96
sS'cmsswver'
p97
S'CMSSW_8_0_21'
p98
sS'have_set_inputs'
p99
I01
sS'analysis'
p100
S'MT2'
p101
sS'merging_script'
p102
S'/home/users/dpgilber/MT2AnalysisEdit/babymaker/batchsubmit//babies/merging_script.sh'
p103
sS'idle'
p104
I0
sS'baby_tag'
p105
S'AllPF'
p106
sS'imerged_swept'
p107
(lp108
I37
aI16
aI19
aI24
aI26
aI29
aI1
aI4
aI7
aI8
aI10
aI12
aI13
aI17
aI20
aI21
aI23
aI25
aI30
aI33
aI35
aI36
aI40
aI41
aI42
aI44
aI45
aI47
aI48
aI50
aI53
aI54
aI57
aI32
aI2
aI3
aI5
aI38
aI9
aI11
aI34
aI14
aI15
aI49
aI18
aI51
aI52
aI46
aI22
aI55
aI56
aI27
aI43
aI39
aI28
aI6
aI31
asS'input_filenames'
p109
(lp110
V/hadoop/cms/store/group/snt/run2_moriond17/WJetsToLNu_HT-100To200_TuneCUETP8M1_13TeV-madgraphMLM-pythia8_RunIISummer16MiniAODv2-PUMoriond17_80X_mcRun2_asymptotic_2016_TrancheIV_v6-v1/V08-00-16/merged_ntuple_1.root
p111
aV/hadoop/cms/store/group/snt/run2_moriond17/WJetsToLNu_HT-100To200_TuneCUETP8M1_13TeV-madgraphMLM-pythia8_RunIISummer16MiniAODv2-PUMoriond17_80X_mcRun2_asymptotic_2016_TrancheIV_v6-v1/V08-00-16/merged_ntuple_10.root
p112
aV/hadoop/cms/store/group/snt/run2_moriond17/WJetsToLNu_HT-100To200_TuneCUETP8M1_13TeV-madgraphMLM-pythia8_RunIISummer16MiniAODv2-PUMoriond17_80X_mcRun2_asymptotic_2016_TrancheIV_v6-v1/V08-00-16/merged_ntuple_11.root
p113
aV/hadoop/cms/store/group/snt/run2_moriond17/WJetsToLNu_HT-100To200_TuneCUETP8M1_13TeV-madgraphMLM-pythia8_RunIISummer16MiniAODv2-PUMoriond17_80X_mcRun2_asymptotic_2016_TrancheIV_v6-v1/V08-00-16/merged_ntuple_12.root
p114
aV/hadoop/cms/store/group/snt/run2_moriond17/WJetsToLNu_HT-100To200_TuneCUETP8M1_13TeV-madgraphMLM-pythia8_RunIISummer16MiniAODv2-PUMoriond17_80X_mcRun2_asymptotic_2016_TrancheIV_v6-v1/V08-00-16/merged_ntuple_13.root
p115
aV/hadoop/cms/store/group/snt/run2_moriond17/WJetsToLNu_HT-100To200_TuneCUETP8M1_13TeV-madgraphMLM-pythia8_RunIISummer16MiniAODv2-PUMoriond17_80X_mcRun2_asymptotic_2016_TrancheIV_v6-v1/V08-00-16/merged_ntuple_14.root
p116
aV/hadoop/cms/store/group/snt/run2_moriond17/WJetsToLNu_HT-100To200_TuneCUETP8M1_13TeV-madgraphMLM-pythia8_RunIISummer16MiniAODv2-PUMoriond17_80X_mcRun2_asymptotic_2016_TrancheIV_v6-v1/V08-00-16/merged_ntuple_15.root
p117
aV/hadoop/cms/store/group/snt/run2_moriond17/WJetsToLNu_HT-100To200_TuneCUETP8M1_13TeV-madgraphMLM-pythia8_RunIISummer16MiniAODv2-PUMoriond17_80X_mcRun2_asymptotic_2016_TrancheIV_v6-v1/V08-00-16/merged_ntuple_16.root
p118
aV/hadoop/cms/store/group/snt/run2_moriond17/WJetsToLNu_HT-100To200_TuneCUETP8M1_13TeV-madgraphMLM-pythia8_RunIISummer16MiniAODv2-PUMoriond17_80X_mcRun2_asymptotic_2016_TrancheIV_v6-v1/V08-00-16/merged_ntuple_17.root
p119
aV/hadoop/cms/store/group/snt/run2_moriond17/WJetsToLNu_HT-100To200_TuneCUETP8M1_13TeV-madgraphMLM-pythia8_RunIISummer16MiniAODv2-PUMoriond17_80X_mcRun2_asymptotic_2016_TrancheIV_v6-v1/V08-00-16/merged_ntuple_18.root
p120
aV/hadoop/cms/store/group/snt/run2_moriond17/WJetsToLNu_HT-100To200_TuneCUETP8M1_13TeV-madgraphMLM-pythia8_RunIISummer16MiniAODv2-PUMoriond17_80X_mcRun2_asymptotic_2016_TrancheIV_v6-v1/V08-00-16/merged_ntuple_19.root
p121
aV/hadoop/cms/store/group/snt/run2_moriond17/WJetsToLNu_HT-100To200_TuneCUETP8M1_13TeV-madgraphMLM-pythia8_RunIISummer16MiniAODv2-PUMoriond17_80X_mcRun2_asymptotic_2016_TrancheIV_v6-v1/V08-00-16/merged_ntuple_2.root
p122
aV/hadoop/cms/store/group/snt/run2_moriond17/WJetsToLNu_HT-100To200_TuneCUETP8M1_13TeV-madgraphMLM-pythia8_RunIISummer16MiniAODv2-PUMoriond17_80X_mcRun2_asymptotic_2016_TrancheIV_v6-v1/V08-00-16/merged_ntuple_20.root
p123
aV/hadoop/cms/store/group/snt/run2_moriond17/WJetsToLNu_HT-100To200_TuneCUETP8M1_13TeV-madgraphMLM-pythia8_RunIISummer16MiniAODv2-PUMoriond17_80X_mcRun2_asymptotic_2016_TrancheIV_v6-v1/V08-00-16/merged_ntuple_21.root
p124
aV/hadoop/cms/store/group/snt/run2_moriond17/WJetsToLNu_HT-100To200_TuneCUETP8M1_13TeV-madgraphMLM-pythia8_RunIISummer16MiniAODv2-PUMoriond17_80X_mcRun2_asymptotic_2016_TrancheIV_v6-v1/V08-00-16/merged_ntuple_22.root
p125
aV/hadoop/cms/store/group/snt/run2_moriond17/WJetsToLNu_HT-100To200_TuneCUETP8M1_13TeV-madgraphMLM-pythia8_RunIISummer16MiniAODv2-PUMoriond17_80X_mcRun2_asymptotic_2016_TrancheIV_v6-v1/V08-00-16/merged_ntuple_23.root
p126
aV/hadoop/cms/store/group/snt/run2_moriond17/WJetsToLNu_HT-100To200_TuneCUETP8M1_13TeV-madgraphMLM-pythia8_RunIISummer16MiniAODv2-PUMoriond17_80X_mcRun2_asymptotic_2016_TrancheIV_v6-v1/V08-00-16/merged_ntuple_24.root
p127
aV/hadoop/cms/store/group/snt/run2_moriond17/WJetsToLNu_HT-100To200_TuneCUETP8M1_13TeV-madgraphMLM-pythia8_RunIISummer16MiniAODv2-PUMoriond17_80X_mcRun2_asymptotic_2016_TrancheIV_v6-v1/V08-00-16/merged_ntuple_25.root
p128
aV/hadoop/cms/store/group/snt/run2_moriond17/WJetsToLNu_HT-100To200_TuneCUETP8M1_13TeV-madgraphMLM-pythia8_RunIISummer16MiniAODv2-PUMoriond17_80X_mcRun2_asymptotic_2016_TrancheIV_v6-v1/V08-00-16/merged_ntuple_26.root
p129
aV/hadoop/cms/store/group/snt/run2_moriond17/WJetsToLNu_HT-100To200_TuneCUETP8M1_13TeV-madgraphMLM-pythia8_RunIISummer16MiniAODv2-PUMoriond17_80X_mcRun2_asymptotic_2016_TrancheIV_v6-v1/V08-00-16/merged_ntuple_27.root
p130
aV/hadoop/cms/store/group/snt/run2_moriond17/WJetsToLNu_HT-100To200_TuneCUETP8M1_13TeV-madgraphMLM-pythia8_RunIISummer16MiniAODv2-PUMoriond17_80X_mcRun2_asymptotic_2016_TrancheIV_v6-v1/V08-00-16/merged_ntuple_28.root
p131
aV/hadoop/cms/store/group/snt/run2_moriond17/WJetsToLNu_HT-100To200_TuneCUETP8M1_13TeV-madgraphMLM-pythia8_RunIISummer16MiniAODv2-PUMoriond17_80X_mcRun2_asymptotic_2016_TrancheIV_v6-v1/V08-00-16/merged_ntuple_29.root
p132
aV/hadoop/cms/store/group/snt/run2_moriond17/WJetsToLNu_HT-100To200_TuneCUETP8M1_13TeV-madgraphMLM-pythia8_RunIISummer16MiniAODv2-PUMoriond17_80X_mcRun2_asymptotic_2016_TrancheIV_v6-v1/V08-00-16/merged_ntuple_3.root
p133
aV/hadoop/cms/store/group/snt/run2_moriond17/WJetsToLNu_HT-100To200_TuneCUETP8M1_13TeV-madgraphMLM-pythia8_RunIISummer16MiniAODv2-PUMoriond17_80X_mcRun2_asymptotic_2016_TrancheIV_v6-v1/V08-00-16/merged_ntuple_30.root
p134
aV/hadoop/cms/store/group/snt/run2_moriond17/WJetsToLNu_HT-100To200_TuneCUETP8M1_13TeV-madgraphMLM-pythia8_RunIISummer16MiniAODv2-PUMoriond17_80X_mcRun2_asymptotic_2016_TrancheIV_v6-v1/V08-00-16/merged_ntuple_31.root
p135
aV/hadoop/cms/store/group/snt/run2_moriond17/WJetsToLNu_HT-100To200_TuneCUETP8M1_13TeV-madgraphMLM-pythia8_RunIISummer16MiniAODv2-PUMoriond17_80X_mcRun2_asymptotic_2016_TrancheIV_v6-v1/V08-00-16/merged_ntuple_32.root
p136
aV/hadoop/cms/store/group/snt/run2_moriond17/WJetsToLNu_HT-100To200_TuneCUETP8M1_13TeV-madgraphMLM-pythia8_RunIISummer16MiniAODv2-PUMoriond17_80X_mcRun2_asymptotic_2016_TrancheIV_v6-v1/V08-00-16/merged_ntuple_33.root
p137
aV/hadoop/cms/store/group/snt/run2_moriond17/WJetsToLNu_HT-100To200_TuneCUETP8M1_13TeV-madgraphMLM-pythia8_RunIISummer16MiniAODv2-PUMoriond17_80X_mcRun2_asymptotic_2016_TrancheIV_v6-v1/V08-00-16/merged_ntuple_34.root
p138
aV/hadoop/cms/store/group/snt/run2_moriond17/WJetsToLNu_HT-100To200_TuneCUETP8M1_13TeV-madgraphMLM-pythia8_RunIISummer16MiniAODv2-PUMoriond17_80X_mcRun2_asymptotic_2016_TrancheIV_v6-v1/V08-00-16/merged_ntuple_35.root
p139
aV/hadoop/cms/store/group/snt/run2_moriond17/WJetsToLNu_HT-100To200_TuneCUETP8M1_13TeV-madgraphMLM-pythia8_RunIISummer16MiniAODv2-PUMoriond17_80X_mcRun2_asymptotic_2016_TrancheIV_v6-v1/V08-00-16/merged_ntuple_36.root
p140
aV/hadoop/cms/store/group/snt/run2_moriond17/WJetsToLNu_HT-100To200_TuneCUETP8M1_13TeV-madgraphMLM-pythia8_RunIISummer16MiniAODv2-PUMoriond17_80X_mcRun2_asymptotic_2016_TrancheIV_v6-v1/V08-00-16/merged_ntuple_37.root
p141
aV/hadoop/cms/store/group/snt/run2_moriond17/WJetsToLNu_HT-100To200_TuneCUETP8M1_13TeV-madgraphMLM-pythia8_RunIISummer16MiniAODv2-PUMoriond17_80X_mcRun2_asymptotic_2016_TrancheIV_v6-v1/V08-00-16/merged_ntuple_38.root
p142
aV/hadoop/cms/store/group/snt/run2_moriond17/WJetsToLNu_HT-100To200_TuneCUETP8M1_13TeV-madgraphMLM-pythia8_RunIISummer16MiniAODv2-PUMoriond17_80X_mcRun2_asymptotic_2016_TrancheIV_v6-v1/V08-00-16/merged_ntuple_39.root
p143
aV/hadoop/cms/store/group/snt/run2_moriond17/WJetsToLNu_HT-100To200_TuneCUETP8M1_13TeV-madgraphMLM-pythia8_RunIISummer16MiniAODv2-PUMoriond17_80X_mcRun2_asymptotic_2016_TrancheIV_v6-v1/V08-00-16/merged_ntuple_4.root
p144
aV/hadoop/cms/store/group/snt/run2_moriond17/WJetsToLNu_HT-100To200_TuneCUETP8M1_13TeV-madgraphMLM-pythia8_RunIISummer16MiniAODv2-PUMoriond17_80X_mcRun2_asymptotic_2016_TrancheIV_v6-v1/V08-00-16/merged_ntuple_40.root
p145
aV/hadoop/cms/store/group/snt/run2_moriond17/WJetsToLNu_HT-100To200_TuneCUETP8M1_13TeV-madgraphMLM-pythia8_RunIISummer16MiniAODv2-PUMoriond17_80X_mcRun2_asymptotic_2016_TrancheIV_v6-v1/V08-00-16/merged_ntuple_41.root
p146
aV/hadoop/cms/store/group/snt/run2_moriond17/WJetsToLNu_HT-100To200_TuneCUETP8M1_13TeV-madgraphMLM-pythia8_RunIISummer16MiniAODv2-PUMoriond17_80X_mcRun2_asymptotic_2016_TrancheIV_v6-v1/V08-00-16/merged_ntuple_42.root
p147
aV/hadoop/cms/store/group/snt/run2_moriond17/WJetsToLNu_HT-100To200_TuneCUETP8M1_13TeV-madgraphMLM-pythia8_RunIISummer16MiniAODv2-PUMoriond17_80X_mcRun2_asymptotic_2016_TrancheIV_v6-v1/V08-00-16/merged_ntuple_43.root
p148
aV/hadoop/cms/store/group/snt/run2_moriond17/WJetsToLNu_HT-100To200_TuneCUETP8M1_13TeV-madgraphMLM-pythia8_RunIISummer16MiniAODv2-PUMoriond17_80X_mcRun2_asymptotic_2016_TrancheIV_v6-v1/V08-00-16/merged_ntuple_44.root
p149
aV/hadoop/cms/store/group/snt/run2_moriond17/WJetsToLNu_HT-100To200_TuneCUETP8M1_13TeV-madgraphMLM-pythia8_RunIISummer16MiniAODv2-PUMoriond17_80X_mcRun2_asymptotic_2016_TrancheIV_v6-v1/V08-00-16/merged_ntuple_45.root
p150
aV/hadoop/cms/store/group/snt/run2_moriond17/WJetsToLNu_HT-100To200_TuneCUETP8M1_13TeV-madgraphMLM-pythia8_RunIISummer16MiniAODv2-PUMoriond17_80X_mcRun2_asymptotic_2016_TrancheIV_v6-v1/V08-00-16/merged_ntuple_46.root
p151
aV/hadoop/cms/store/group/snt/run2_moriond17/WJetsToLNu_HT-100To200_TuneCUETP8M1_13TeV-madgraphMLM-pythia8_RunIISummer16MiniAODv2-PUMoriond17_80X_mcRun2_asymptotic_2016_TrancheIV_v6-v1/V08-00-16/merged_ntuple_47.root
p152
aV/hadoop/cms/store/group/snt/run2_moriond17/WJetsToLNu_HT-100To200_TuneCUETP8M1_13TeV-madgraphMLM-pythia8_RunIISummer16MiniAODv2-PUMoriond17_80X_mcRun2_asymptotic_2016_TrancheIV_v6-v1/V08-00-16/merged_ntuple_48.root
p153
aV/hadoop/cms/store/group/snt/run2_moriond17/WJetsToLNu_HT-100To200_TuneCUETP8M1_13TeV-madgraphMLM-pythia8_RunIISummer16MiniAODv2-PUMoriond17_80X_mcRun2_asymptotic_2016_TrancheIV_v6-v1/V08-00-16/merged_ntuple_49.root
p154
aV/hadoop/cms/store/group/snt/run2_moriond17/WJetsToLNu_HT-100To200_TuneCUETP8M1_13TeV-madgraphMLM-pythia8_RunIISummer16MiniAODv2-PUMoriond17_80X_mcRun2_asymptotic_2016_TrancheIV_v6-v1/V08-00-16/merged_ntuple_5.root
p155
aV/hadoop/cms/store/group/snt/run2_moriond17/WJetsToLNu_HT-100To200_TuneCUETP8M1_13TeV-madgraphMLM-pythia8_RunIISummer16MiniAODv2-PUMoriond17_80X_mcRun2_asymptotic_2016_TrancheIV_v6-v1/V08-00-16/merged_ntuple_50.root
p156
aV/hadoop/cms/store/group/snt/run2_moriond17/WJetsToLNu_HT-100To200_TuneCUETP8M1_13TeV-madgraphMLM-pythia8_RunIISummer16MiniAODv2-PUMoriond17_80X_mcRun2_asymptotic_2016_TrancheIV_v6-v1/V08-00-16/merged_ntuple_51.root
p157
aV/hadoop/cms/store/group/snt/run2_moriond17/WJetsToLNu_HT-100To200_TuneCUETP8M1_13TeV-madgraphMLM-pythia8_RunIISummer16MiniAODv2-PUMoriond17_80X_mcRun2_asymptotic_2016_TrancheIV_v6-v1/V08-00-16/merged_ntuple_52.root
p158
aV/hadoop/cms/store/group/snt/run2_moriond17/WJetsToLNu_HT-100To200_TuneCUETP8M1_13TeV-madgraphMLM-pythia8_RunIISummer16MiniAODv2-PUMoriond17_80X_mcRun2_asymptotic_2016_TrancheIV_v6-v1/V08-00-16/merged_ntuple_53.root
p159
aV/hadoop/cms/store/group/snt/run2_moriond17/WJetsToLNu_HT-100To200_TuneCUETP8M1_13TeV-madgraphMLM-pythia8_RunIISummer16MiniAODv2-PUMoriond17_80X_mcRun2_asymptotic_2016_TrancheIV_v6-v1/V08-00-16/merged_ntuple_54.root
p160
aV/hadoop/cms/store/group/snt/run2_moriond17/WJetsToLNu_HT-100To200_TuneCUETP8M1_13TeV-madgraphMLM-pythia8_RunIISummer16MiniAODv2-PUMoriond17_80X_mcRun2_asymptotic_2016_TrancheIV_v6-v1/V08-00-16/merged_ntuple_55.root
p161
aV/hadoop/cms/store/group/snt/run2_moriond17/WJetsToLNu_HT-100To200_TuneCUETP8M1_13TeV-madgraphMLM-pythia8_RunIISummer16MiniAODv2-PUMoriond17_80X_mcRun2_asymptotic_2016_TrancheIV_v6-v1/V08-00-16/merged_ntuple_56.root
p162
aV/hadoop/cms/store/group/snt/run2_moriond17/WJetsToLNu_HT-100To200_TuneCUETP8M1_13TeV-madgraphMLM-pythia8_RunIISummer16MiniAODv2-PUMoriond17_80X_mcRun2_asymptotic_2016_TrancheIV_v6-v1/V08-00-16/merged_ntuple_57.root
p163
aV/hadoop/cms/store/group/snt/run2_moriond17/WJetsToLNu_HT-100To200_TuneCUETP8M1_13TeV-madgraphMLM-pythia8_RunIISummer16MiniAODv2-PUMoriond17_80X_mcRun2_asymptotic_2016_TrancheIV_v6-v1/V08-00-16/merged_ntuple_6.root
p164
aV/hadoop/cms/store/group/snt/run2_moriond17/WJetsToLNu_HT-100To200_TuneCUETP8M1_13TeV-madgraphMLM-pythia8_RunIISummer16MiniAODv2-PUMoriond17_80X_mcRun2_asymptotic_2016_TrancheIV_v6-v1/V08-00-16/merged_ntuple_7.root
p165
aV/hadoop/cms/store/group/snt/run2_moriond17/WJetsToLNu_HT-100To200_TuneCUETP8M1_13TeV-madgraphMLM-pythia8_RunIISummer16MiniAODv2-PUMoriond17_80X_mcRun2_asymptotic_2016_TrancheIV_v6-v1/V08-00-16/merged_ntuple_8.root
p166
aV/hadoop/cms/store/group/snt/run2_moriond17/WJetsToLNu_HT-100To200_TuneCUETP8M1_13TeV-madgraphMLM-pythia8_RunIISummer16MiniAODv2-PUMoriond17_80X_mcRun2_asymptotic_2016_TrancheIV_v6-v1/V08-00-16/merged_ntuple_9.root
p167
assS'nevents_unmerged'
p168
I0
sg97
g98
sS'postprocessing'
p169
(dp170
g89
I0
sg75
I6
sg52
I6
sg104
I0
ssS'nevents_merged'
p171
I0
sS'nevents_DAS'
p172
I0
ssS'misc'
p173
(dp174
S'rootfiles'
p175
(lp176
sS'crab_config'
p177
NsS'last_saved'
p178
I1503478644
sS'handled_more_than_1k'
p179
I00
sS'can_skip_tail'
p180
I00
sS'email_when_done'
p181
I00
sS'update_dis_when_done'
p182
I00
sS'pfx_babies'
p183
S'babies'
p184
sS'logfiles'
p185
(lp186
sS'pfx_pset'
p187
g7
sS'pfx_crab'
p188
g29
ss.