(dp0
S'sample'
p1
(dp2
S'gtag'
p3
NsS'isdata'
p4
I00
sS'dataset'
p5
S'/SMS-T1tttt_TuneCUETP8M1_13TeV-madgraphMLM-pythia8/RunIISpring16MiniAODv2-PUSpring16Fast_80X_mcRun2_asymptotic_2016_miniAODv2_v0-v1/MINIAODSIM'
p6
sS'pset'
p7
S''
p8
sS'finaldir'
p9
g8
sS'ijob_to_nevents'
p10
(dp11
sS'basedir'
p12
S'/home/users/dpgilber/MT2AnalysisEdit/babymaker/batchsubmit/'
p13
sS'kfact'
p14
NsS'imerged_to_ijob'
p15
(dp16
S'output'
p17
(dp18
I1
(lp19
I1
aI10
aI100
aI101
aI102
aI103
aI104
aI105
aI106
aI107
aI108
aI109
aI11
aI110
asI2
(lp20
I111
aI112
aI113
aI114
aI115
aI116
aI117
aI118
aI119
aI12
aI120
aI121
aI122
aI123
aI124
asI3
(lp21
I125
aI126
aI127
aI128
aI129
aI13
aI130
aI131
aI132
aI133
aI134
aI135
aI136
aI137
asI4
(lp22
I138
aI139
aI14
aI140
aI141
aI142
aI143
aI144
aI145
aI146
aI147
aI148
aI149
asI5
(lp23
I15
aI150
aI151
aI152
aI153
aI154
aI155
aI156
aI157
aI158
aI159
aI16
aI160
aI161
aI162
asI6
(lp24
I163
aI164
aI165
aI166
aI167
aI168
aI169
aI17
aI170
aI171
aI172
aI173
aI174
asI7
(lp25
I175
aI176
aI177
aI178
aI179
aI18
aI180
aI181
aI182
aI183
aI184
aI185
aI186
aI187
asI8
(lp26
I188
aI189
aI19
aI190
aI191
aI192
aI193
aI194
aI195
aI196
aI197
aI198
aI199
aI2
asI9
(lp27
I20
aI200
aI201
aI202
aI203
aI204
aI205
aI206
aI207
aI208
aI209
aI21
aI210
aI211
aI212
asI10
(lp28
I213
aI214
aI215
aI216
aI217
aI218
aI219
aI22
aI220
aI221
aI222
aI223
aI224
aI225
asI11
(lp29
I226
aI227
aI228
aI229
aI23
aI230
aI231
aI232
aI233
aI234
aI235
aI236
aI237
aI238
aI239
asI12
(lp30
I24
aI240
aI241
aI242
aI243
aI244
aI245
aI246
aI247
aI248
aI249
aI25
aI250
aI251
asI13
(lp31
I252
aI253
aI254
aI255
aI256
aI257
aI258
aI259
aI26
aI260
aI261
aI262
aI263
aI264
asI14
(lp32
I265
aI266
aI267
aI268
aI269
aI27
aI270
aI271
aI272
aI273
aI274
aI275
aI276
aI277
asI15
(lp33
I278
aI279
aI28
aI280
aI281
aI282
aI283
aI284
aI285
aI286
aI287
aI288
aI289
aI29
aI290
asI16
(lp34
I291
aI292
aI293
aI294
aI295
aI296
aI297
aI298
aI299
aI3
aI30
aI300
aI301
aI302
asI17
(lp35
I303
aI304
aI305
aI31
aI32
aI33
aI34
aI35
aI36
aI37
aI38
aI39
aI4
aI40
aI41
asI18
(lp36
I42
aI43
aI44
aI45
aI46
aI47
aI48
aI49
aI5
aI50
aI51
aI52
aI53
aI54
asI19
(lp37
I55
aI56
aI57
aI58
aI59
aI6
aI60
aI61
aI62
aI63
aI64
aI65
aI66
aI67
asI20
(lp38
I68
aI69
aI7
aI70
aI71
aI72
aI73
aI74
aI75
aI76
aI77
aI78
aI79
aI8
aI80
asI21
(lp39
I81
aI82
aI83
aI84
aI85
aI86
aI87
aI88
aI89
aI9
aI90
aI91
aI92
aI93
asI22
(lp40
I94
aI95
aI96
aI97
aI98
aI99
assS'skim'
p41
(dp42
I1
(lp43
I1
aI10
aI100
aI101
aI102
aI103
aI104
aI105
aI106
aI107
aI108
aI109
aI11
aI110
aI111
aI112
aI113
aI114
aI115
aI116
aI117
aI118
aI119
aI12
aI120
aI121
aI122
aI123
aI124
aI125
aI126
aI127
aI128
aI129
aI13
aI130
asI2
(lp44
I131
aI132
aI133
aI134
aI135
aI136
aI137
aI138
aI139
aI14
aI140
aI141
aI142
aI143
aI144
aI145
aI146
aI147
aI148
aI149
aI15
aI150
aI151
aI152
aI153
aI154
aI155
aI156
aI157
aI158
aI159
aI16
aI160
aI161
aI162
aI163
asI3
(lp45
I164
aI165
aI166
aI167
aI168
aI169
aI17
aI170
aI171
aI172
aI173
aI174
aI175
aI176
aI177
aI178
aI179
aI18
aI180
aI181
aI182
aI183
aI184
aI185
aI186
aI187
aI188
aI189
aI19
aI190
aI191
aI192
aI193
aI194
asI4
(lp46
I195
aI196
aI197
aI198
aI199
aI2
aI20
aI200
aI201
aI202
aI203
aI204
aI205
aI206
aI207
aI208
aI209
aI21
aI210
aI211
aI212
aI213
aI214
aI215
aI216
aI217
aI218
aI219
aI22
aI220
aI221
aI222
aI223
aI224
aI225
aI226
asI5
(lp47
I227
aI228
aI229
aI23
aI230
aI231
aI232
aI233
aI234
aI235
aI236
aI237
aI238
aI239
aI24
aI240
aI241
aI242
aI243
aI244
aI245
aI246
aI247
aI248
aI249
aI25
aI250
aI251
aI252
aI253
aI254
aI255
aI256
aI257
aI258
aI259
aI26
asI6
(lp48
I260
aI261
aI262
aI263
aI264
aI265
aI266
aI267
aI268
aI269
aI27
aI270
aI271
aI272
aI273
aI274
aI275
aI276
aI277
aI278
aI279
aI28
aI280
aI281
aI282
aI283
aI284
aI285
aI286
aI287
aI288
aI289
aI29
aI290
aI291
aI292
asI7
(lp49
I293
aI294
aI295
aI296
aI297
aI298
aI299
aI3
aI30
aI300
aI301
aI302
aI303
aI304
aI305
aI31
aI32
aI33
aI34
aI35
aI36
aI37
aI38
aI39
aI4
aI40
aI41
aI42
aI43
aI44
aI45
aI46
aI47
aI48
aI49
aI5
aI50
asI8
(lp50
I51
aI52
aI53
aI54
aI55
aI56
aI57
aI58
aI59
aI6
aI60
aI61
aI62
aI63
aI64
aI65
aI66
aI67
aI68
aI69
aI7
aI70
aI71
aI72
aI73
aI74
aI75
aI76
aI77
aI78
aI79
aI8
aI80
aI81
aI82
aI83
asI9
(lp51
I84
aI85
aI86
aI87
aI88
aI89
aI9
aI90
aI91
aI92
aI93
aI94
aI95
aI96
aI97
aI98
aI99
assS'skim_rphi'
p52
(dp53
I1
(lp54
I1
aI10
aI100
aI101
aI102
aI103
aI104
aI105
aI106
aI107
aI108
aI109
aI11
aI110
aI111
aI112
aI113
aI114
aI115
aI116
aI117
aI118
aI119
aI12
aI120
aI121
aI122
aI123
aI124
aI125
aI126
aI127
aI128
aI129
aI13
aI130
aI131
aI132
aI133
aI134
aI135
aI136
aI137
aI138
aI139
aI14
aI140
aI141
aI142
aI143
aI144
aI145
aI146
aI147
aI148
aI149
aI15
aI150
asI2
(lp55
I151
aI152
aI153
aI154
aI155
aI156
aI157
aI158
aI159
aI16
aI160
aI161
aI162
aI163
aI164
aI165
aI166
aI167
aI168
aI169
aI17
aI170
aI171
aI172
aI173
aI174
aI175
aI176
aI177
aI178
aI179
aI18
aI180
aI181
aI182
aI183
aI184
aI185
aI186
aI187
aI188
aI189
aI19
aI190
aI191
aI192
aI193
aI194
aI195
aI196
aI197
aI198
aI199
aI2
aI20
aI200
aI201
asI3
(lp56
I202
aI203
aI204
aI205
aI206
aI207
aI208
aI209
aI21
aI210
aI211
aI212
aI213
aI214
aI215
aI216
aI217
aI218
aI219
aI22
aI220
aI221
aI222
aI223
aI224
aI225
aI226
aI227
aI228
aI229
aI23
aI230
aI231
aI232
aI233
aI234
aI235
aI236
aI237
aI238
aI239
aI24
aI240
aI241
aI242
aI243
aI244
aI245
aI246
aI247
aI248
aI249
aI25
aI250
aI251
aI252
aI253
aI254
aI255
asI4
(lp57
I256
aI257
aI258
aI259
aI26
aI260
aI261
aI262
aI263
aI264
aI265
aI266
aI267
aI268
aI269
aI27
aI270
aI271
aI272
aI273
aI274
aI275
aI276
aI277
aI278
aI279
aI28
aI280
aI281
aI282
aI283
aI284
aI285
aI286
aI287
aI288
aI289
aI29
aI290
aI291
aI292
aI293
aI294
aI295
aI296
aI297
aI298
aI299
aI3
aI30
aI300
aI301
aI302
aI303
aI304
aI305
aI31
aI32
aI33
asI5
(lp58
I34
aI35
aI36
aI37
aI38
aI39
aI4
aI40
aI41
aI42
aI43
aI44
aI45
aI46
aI47
aI48
aI49
aI5
aI50
aI51
aI52
aI53
aI54
aI55
aI56
aI57
aI58
aI59
aI6
aI60
aI61
aI62
aI63
aI64
aI65
aI66
aI67
aI68
aI69
aI7
aI70
aI71
aI72
aI73
aI74
aI75
aI76
aI77
aI78
aI79
aI8
aI80
aI81
aI82
aI83
aI84
aI85
aI86
asI6
(lp59
I87
aI88
aI89
aI9
aI90
aI91
aI92
aI93
aI94
aI95
aI96
aI97
aI98
aI99
asssS'crab'
p60
(dp61
S'resubmissions'
p62
I0
sS'datetime'
p63
NsS'jobs_left'
p64
(lp65
sS'requestname'
p66
S'SMS-T1tttt_TuneCUETP8M1_13TeV-madgraphMLM-pythia8_RunIISpring16MiniAODv2-PUSpring16Fast_80X_mcRun2_'
p67
sS'taskdir'
p68
S'babies/babies_SMS-T1tttt_TuneCUETP8M1_13TeV-madgraphMLM-pythia8_RunIISpring16MiniAODv2-PUSpring16Fast_80X_mcRun2__AllPF'
p69
sS'outputdir'
p70
NsS'jobs_left_tail'
p71
(lp72
ssS'shortname'
p73
S'SMS-T1tttt_TuneCUETP8M1_13TeV-madgraphMLM-pythia8_RunIISpring16MiniAODv2-PUSpring16Fast_80X_mcRun2_asymptotic_2016_miniAODv2_v0-v1'
p74
sS'xsec'
p75
NsS'type'
p76
S'BABY'
p77
sS'checks'
p78
(dp79
sS'sparms'
p80
(lp81
sS'status'
p82
S'done'
p83
sS'ijob_to_miniaod'
p84
(dp85
sS'cms3tag'
p86
VCMS3_V08-00-09
p87
sS'specialdir'
p88
g8
sS'user'
p89
S'dpgilber'
p90
sS'efact'
p91
NsS'baby'
p92
(dp93
S'condor_done'
p94
I305
sS'outputdir_pattern'
p95
S'/hadoop/cms/store/user/dpgilber/AutoTwopler_babies/${ANALYSIS}_${BABY_TAG}/${SHORTNAME}/'
p96
sS'user_executable'
p97
S'/home/users/dpgilber/MT2AnalysisEdit/babymaker/batchsubmit/job_input/wrapper_auto.sh'
p98
sg5
g6
sS'scramarch'
p99
S'slc6_amd64_gcc530'
p100
sS'sweepRoot_script'
p101
S'/home/users/dpgilber/MT2AnalysisEdit/babymaker/batchsubmit//babies/sweepRoot.sh'
p102
sS'executable_script'
p103
S'/home/users/dpgilber/MT2AnalysisEdit/babymaker/batchsubmit//babies/baby_ducks.sh'
p104
sg9
S'/hadoop/cms/store/user/dpgilber/AutoTwopler_babies/MT2_AllPF/SMS-T1tttt_TuneCUETP8M1_13TeV-madgraphMLM-pythia8_RunIISpring16MiniAODv2-PUSpring16Fast_80X_mcRun2_asymptotic_2016_miniAODv2_v0-v1/'
p105
sS'total'
p106
I305
sS'nevents'
p107
I-1
sS'output_names_nosplit'
p108
S'output.root,skim.root,skim_rphi.root'
p109
sS'imerged'
p110
(lp111
I1
aI10
aI100
aI101
aI102
aI103
aI104
aI105
aI106
aI107
aI108
aI109
aI11
aI110
aI111
aI112
aI113
aI114
aI115
aI116
aI117
aI118
aI119
aI12
aI120
aI121
aI122
aI123
aI124
aI125
aI126
aI127
aI128
aI129
aI13
aI130
aI131
aI132
aI133
aI134
aI135
aI136
aI137
aI138
aI139
aI14
aI140
aI141
aI142
aI143
aI144
aI145
aI146
aI147
aI148
aI149
aI15
aI150
aI151
aI152
aI153
aI154
aI155
aI156
aI157
aI158
aI159
aI16
aI160
aI161
aI162
aI163
aI164
aI165
aI166
aI167
aI168
aI169
aI17
aI170
aI171
aI172
aI173
aI174
aI175
aI176
aI177
aI178
aI179
aI18
aI180
aI181
aI182
aI183
aI184
aI185
aI186
aI187
aI188
aI189
aI19
aI190
aI191
aI192
aI193
aI194
aI195
aI196
aI197
aI198
aI199
aI2
aI20
aI200
aI201
aI202
aI203
aI204
aI205
aI206
aI207
aI208
aI209
aI21
aI210
aI211
aI212
aI213
aI214
aI215
aI216
aI217
aI218
aI219
aI22
aI220
aI221
aI222
aI223
aI224
aI225
aI226
aI227
aI228
aI229
aI23
aI230
aI231
aI232
aI233
aI234
aI235
aI236
aI237
aI238
aI239
aI24
aI240
aI241
aI242
aI243
aI244
aI245
aI246
aI247
aI248
aI249
aI25
aI250
aI251
aI252
aI253
aI254
aI255
aI256
aI257
aI258
aI259
aI26
aI260
aI261
aI262
aI263
aI264
aI265
aI266
aI267
aI268
aI269
aI27
aI270
aI271
aI272
aI273
aI274
aI275
aI276
aI277
aI278
aI279
aI28
aI280
aI281
aI282
aI283
aI284
aI285
aI286
aI287
aI288
aI289
aI29
aI290
aI291
aI292
aI293
aI294
aI295
aI296
aI297
aI298
aI299
aI3
aI30
aI300
aI301
aI302
aI303
aI304
aI305
aI31
aI32
aI33
aI34
aI35
aI36
aI37
aI38
aI39
aI4
aI40
aI41
aI42
aI43
aI44
aI45
aI46
aI47
aI48
aI49
aI5
aI50
aI51
aI52
aI53
aI54
aI55
aI56
aI57
aI58
aI59
aI6
aI60
aI61
aI62
aI63
aI64
aI65
aI66
aI67
aI68
aI69
aI7
aI70
aI71
aI72
aI73
aI74
aI75
aI76
aI77
aI78
aI79
aI8
aI80
aI81
aI82
aI83
aI84
aI85
aI86
aI87
aI88
aI89
aI9
aI90
aI91
aI92
aI93
aI94
aI95
aI96
aI97
aI98
aI99
asS'sweepRooted'
p112
I305
sS'exe_args'
p113
(lp114
g8
asS'merged_dir'
p115
S'/hadoop/cms/store/user/dpgilber/AutoTwopler_babies/merged//MT2/AllPF/'
p116
sS'user_package'
p117
S'/home/users/dpgilber/MT2AnalysisEdit/babymaker/batchsubmit/job_input/package.tar.gz'
p118
sS'exe_args_nosplit'
p119
g8
sS'running'
p120
I0
sS'output_names'
p121
(lp122
S'output.root'
p123
aS'skim.root'
p124
aS'skim_rphi.root'
p125
asS'package'
p126
S'/home/users/dpgilber/MT2AnalysisEdit/babymaker/batchsubmit//babies/package.tar.gz'
p127
sS'cmsswver'
p128
S'CMSSW_8_0_21'
p129
sS'have_set_inputs'
p130
I01
sS'analysis'
p131
S'MT2'
p132
sS'merging_script'
p133
S'/home/users/dpgilber/MT2AnalysisEdit/babymaker/batchsubmit//babies/merging_script.sh'
p134
sS'idle'
p135
I0
sS'baby_tag'
p136
S'AllPF'
p137
sS'imerged_swept'
p138
(lp139
I305
aI258
aI131
aI135
aI8
aI268
aI143
aI273
aI3
aI153
aI284
aI29
aI32
aI263
aI301
aI188
aI62
aI64
aI76
aI212
aI217
aI95
aI98
aI112
aI241
aI121
aI123
aI126
aI1
aI2
aI4
aI5
aI6
aI7
aI9
aI10
aI11
aI12
aI13
aI15
aI16
aI17
aI21
aI23
aI24
aI25
aI26
aI27
aI28
aI30
aI33
aI34
aI35
aI36
aI38
aI39
aI40
aI44
aI45
aI46
aI48
aI49
aI51
aI54
aI56
aI57
aI58
aI59
aI60
aI61
aI63
aI65
aI66
aI67
aI68
aI69
aI70
aI71
aI72
aI73
aI74
aI75
aI77
aI78
aI79
aI81
aI82
aI83
aI87
aI88
aI89
aI90
aI91
aI92
aI93
aI94
aI99
aI100
aI101
aI102
aI105
aI106
aI107
aI109
aI111
aI113
aI114
aI115
aI116
aI118
aI119
aI120
aI122
aI127
aI128
aI129
aI130
aI132
aI133
aI134
aI136
aI137
aI138
aI141
aI142
aI145
aI146
aI147
aI148
aI150
aI151
aI152
aI154
aI156
aI159
aI160
aI161
aI164
aI165
aI168
aI171
aI172
aI173
aI174
aI175
aI178
aI180
aI181
aI183
aI184
aI185
aI186
aI189
aI190
aI191
aI192
aI193
aI194
aI196
aI197
aI198
aI199
aI200
aI201
aI202
aI203
aI204
aI205
aI206
aI208
aI210
aI211
aI213
aI214
aI215
aI219
aI220
aI221
aI222
aI223
aI224
aI225
aI226
aI227
aI229
aI230
aI231
aI234
aI235
aI236
aI237
aI238
aI239
aI240
aI242
aI243
aI244
aI245
aI246
aI248
aI249
aI250
aI251
aI252
aI253
aI254
aI255
aI256
aI257
aI259
aI260
aI261
aI262
aI265
aI266
aI267
aI269
aI270
aI271
aI272
aI274
aI275
aI276
aI278
aI279
aI280
aI281
aI282
aI283
aI285
aI286
aI287
aI288
aI289
aI290
aI293
aI294
aI295
aI298
aI299
aI300
aI302
aI303
aI304
aI264
aI139
aI140
aI14
aI144
aI18
aI19
aI20
aI149
aI22
aI155
aI157
aI158
aI162
aI163
aI292
aI37
aI167
aI296
aI41
aI42
aI43
aI47
aI176
aI177
aI50
aI179
aI52
aI53
aI182
aI55
aI170
aI187
aI195
aI207
aI80
aI209
aI291
aI84
aI85
aI218
aI297
aI96
aI97
aI228
aI103
aI104
aI233
aI110
aI232
aI117
aI169
aI124
aI125
aI277
aI216
aI166
aI247
aI86
aI31
aI108
asS'input_filenames'
p140
(lp141
V/hadoop/cms/store/group/snt/run2_25ns_80MiniAODv2_fastsim/SMS-T1tttt_TuneCUETP8M1_13TeV-madgraphMLM-pythia8_RunIISpring16MiniAODv2-PUSpring16Fast_80X_mcRun2_asymptotic_2016_miniAODv2_v0-v1/V08-00-09/merged_ntuple_1.root
p142
aV/hadoop/cms/store/group/snt/run2_25ns_80MiniAODv2_fastsim/SMS-T1tttt_TuneCUETP8M1_13TeV-madgraphMLM-pythia8_RunIISpring16MiniAODv2-PUSpring16Fast_80X_mcRun2_asymptotic_2016_miniAODv2_v0-v1/V08-00-09/merged_ntuple_10.root
p143
aV/hadoop/cms/store/group/snt/run2_25ns_80MiniAODv2_fastsim/SMS-T1tttt_TuneCUETP8M1_13TeV-madgraphMLM-pythia8_RunIISpring16MiniAODv2-PUSpring16Fast_80X_mcRun2_asymptotic_2016_miniAODv2_v0-v1/V08-00-09/merged_ntuple_100.root
p144
aV/hadoop/cms/store/group/snt/run2_25ns_80MiniAODv2_fastsim/SMS-T1tttt_TuneCUETP8M1_13TeV-madgraphMLM-pythia8_RunIISpring16MiniAODv2-PUSpring16Fast_80X_mcRun2_asymptotic_2016_miniAODv2_v0-v1/V08-00-09/merged_ntuple_101.root
p145
aV/hadoop/cms/store/group/snt/run2_25ns_80MiniAODv2_fastsim/SMS-T1tttt_TuneCUETP8M1_13TeV-madgraphMLM-pythia8_RunIISpring16MiniAODv2-PUSpring16Fast_80X_mcRun2_asymptotic_2016_miniAODv2_v0-v1/V08-00-09/merged_ntuple_102.root
p146
aV/hadoop/cms/store/group/snt/run2_25ns_80MiniAODv2_fastsim/SMS-T1tttt_TuneCUETP8M1_13TeV-madgraphMLM-pythia8_RunIISpring16MiniAODv2-PUSpring16Fast_80X_mcRun2_asymptotic_2016_miniAODv2_v0-v1/V08-00-09/merged_ntuple_103.root
p147
aV/hadoop/cms/store/group/snt/run2_25ns_80MiniAODv2_fastsim/SMS-T1tttt_TuneCUETP8M1_13TeV-madgraphMLM-pythia8_RunIISpring16MiniAODv2-PUSpring16Fast_80X_mcRun2_asymptotic_2016_miniAODv2_v0-v1/V08-00-09/merged_ntuple_104.root
p148
aV/hadoop/cms/store/group/snt/run2_25ns_80MiniAODv2_fastsim/SMS-T1tttt_TuneCUETP8M1_13TeV-madgraphMLM-pythia8_RunIISpring16MiniAODv2-PUSpring16Fast_80X_mcRun2_asymptotic_2016_miniAODv2_v0-v1/V08-00-09/merged_ntuple_105.root
p149
aV/hadoop/cms/store/group/snt/run2_25ns_80MiniAODv2_fastsim/SMS-T1tttt_TuneCUETP8M1_13TeV-madgraphMLM-pythia8_RunIISpring16MiniAODv2-PUSpring16Fast_80X_mcRun2_asymptotic_2016_miniAODv2_v0-v1/V08-00-09/merged_ntuple_106.root
p150
aV/hadoop/cms/store/group/snt/run2_25ns_80MiniAODv2_fastsim/SMS-T1tttt_TuneCUETP8M1_13TeV-madgraphMLM-pythia8_RunIISpring16MiniAODv2-PUSpring16Fast_80X_mcRun2_asymptotic_2016_miniAODv2_v0-v1/V08-00-09/merged_ntuple_107.root
p151
aV/hadoop/cms/store/group/snt/run2_25ns_80MiniAODv2_fastsim/SMS-T1tttt_TuneCUETP8M1_13TeV-madgraphMLM-pythia8_RunIISpring16MiniAODv2-PUSpring16Fast_80X_mcRun2_asymptotic_2016_miniAODv2_v0-v1/V08-00-09/merged_ntuple_108.root
p152
aV/hadoop/cms/store/group/snt/run2_25ns_80MiniAODv2_fastsim/SMS-T1tttt_TuneCUETP8M1_13TeV-madgraphMLM-pythia8_RunIISpring16MiniAODv2-PUSpring16Fast_80X_mcRun2_asymptotic_2016_miniAODv2_v0-v1/V08-00-09/merged_ntuple_109.root
p153
aV/hadoop/cms/store/group/snt/run2_25ns_80MiniAODv2_fastsim/SMS-T1tttt_TuneCUETP8M1_13TeV-madgraphMLM-pythia8_RunIISpring16MiniAODv2-PUSpring16Fast_80X_mcRun2_asymptotic_2016_miniAODv2_v0-v1/V08-00-09/merged_ntuple_11.root
p154
aV/hadoop/cms/store/group/snt/run2_25ns_80MiniAODv2_fastsim/SMS-T1tttt_TuneCUETP8M1_13TeV-madgraphMLM-pythia8_RunIISpring16MiniAODv2-PUSpring16Fast_80X_mcRun2_asymptotic_2016_miniAODv2_v0-v1/V08-00-09/merged_ntuple_110.root
p155
aV/hadoop/cms/store/group/snt/run2_25ns_80MiniAODv2_fastsim/SMS-T1tttt_TuneCUETP8M1_13TeV-madgraphMLM-pythia8_RunIISpring16MiniAODv2-PUSpring16Fast_80X_mcRun2_asymptotic_2016_miniAODv2_v0-v1/V08-00-09/merged_ntuple_111.root
p156
aV/hadoop/cms/store/group/snt/run2_25ns_80MiniAODv2_fastsim/SMS-T1tttt_TuneCUETP8M1_13TeV-madgraphMLM-pythia8_RunIISpring16MiniAODv2-PUSpring16Fast_80X_mcRun2_asymptotic_2016_miniAODv2_v0-v1/V08-00-09/merged_ntuple_112.root
p157
aV/hadoop/cms/store/group/snt/run2_25ns_80MiniAODv2_fastsim/SMS-T1tttt_TuneCUETP8M1_13TeV-madgraphMLM-pythia8_RunIISpring16MiniAODv2-PUSpring16Fast_80X_mcRun2_asymptotic_2016_miniAODv2_v0-v1/V08-00-09/merged_ntuple_113.root
p158
aV/hadoop/cms/store/group/snt/run2_25ns_80MiniAODv2_fastsim/SMS-T1tttt_TuneCUETP8M1_13TeV-madgraphMLM-pythia8_RunIISpring16MiniAODv2-PUSpring16Fast_80X_mcRun2_asymptotic_2016_miniAODv2_v0-v1/V08-00-09/merged_ntuple_114.root
p159
aV/hadoop/cms/store/group/snt/run2_25ns_80MiniAODv2_fastsim/SMS-T1tttt_TuneCUETP8M1_13TeV-madgraphMLM-pythia8_RunIISpring16MiniAODv2-PUSpring16Fast_80X_mcRun2_asymptotic_2016_miniAODv2_v0-v1/V08-00-09/merged_ntuple_115.root
p160
aV/hadoop/cms/store/group/snt/run2_25ns_80MiniAODv2_fastsim/SMS-T1tttt_TuneCUETP8M1_13TeV-madgraphMLM-pythia8_RunIISpring16MiniAODv2-PUSpring16Fast_80X_mcRun2_asymptotic_2016_miniAODv2_v0-v1/V08-00-09/merged_ntuple_116.root
p161
aV/hadoop/cms/store/group/snt/run2_25ns_80MiniAODv2_fastsim/SMS-T1tttt_TuneCUETP8M1_13TeV-madgraphMLM-pythia8_RunIISpring16MiniAODv2-PUSpring16Fast_80X_mcRun2_asymptotic_2016_miniAODv2_v0-v1/V08-00-09/merged_ntuple_117.root
p162
aV/hadoop/cms/store/group/snt/run2_25ns_80MiniAODv2_fastsim/SMS-T1tttt_TuneCUETP8M1_13TeV-madgraphMLM-pythia8_RunIISpring16MiniAODv2-PUSpring16Fast_80X_mcRun2_asymptotic_2016_miniAODv2_v0-v1/V08-00-09/merged_ntuple_118.root
p163
aV/hadoop/cms/store/group/snt/run2_25ns_80MiniAODv2_fastsim/SMS-T1tttt_TuneCUETP8M1_13TeV-madgraphMLM-pythia8_RunIISpring16MiniAODv2-PUSpring16Fast_80X_mcRun2_asymptotic_2016_miniAODv2_v0-v1/V08-00-09/merged_ntuple_119.root
p164
aV/hadoop/cms/store/group/snt/run2_25ns_80MiniAODv2_fastsim/SMS-T1tttt_TuneCUETP8M1_13TeV-madgraphMLM-pythia8_RunIISpring16MiniAODv2-PUSpring16Fast_80X_mcRun2_asymptotic_2016_miniAODv2_v0-v1/V08-00-09/merged_ntuple_12.root
p165
aV/hadoop/cms/store/group/snt/run2_25ns_80MiniAODv2_fastsim/SMS-T1tttt_TuneCUETP8M1_13TeV-madgraphMLM-pythia8_RunIISpring16MiniAODv2-PUSpring16Fast_80X_mcRun2_asymptotic_2016_miniAODv2_v0-v1/V08-00-09/merged_ntuple_120.root
p166
aV/hadoop/cms/store/group/snt/run2_25ns_80MiniAODv2_fastsim/SMS-T1tttt_TuneCUETP8M1_13TeV-madgraphMLM-pythia8_RunIISpring16MiniAODv2-PUSpring16Fast_80X_mcRun2_asymptotic_2016_miniAODv2_v0-v1/V08-00-09/merged_ntuple_121.root
p167
aV/hadoop/cms/store/group/snt/run2_25ns_80MiniAODv2_fastsim/SMS-T1tttt_TuneCUETP8M1_13TeV-madgraphMLM-pythia8_RunIISpring16MiniAODv2-PUSpring16Fast_80X_mcRun2_asymptotic_2016_miniAODv2_v0-v1/V08-00-09/merged_ntuple_122.root
p168
aV/hadoop/cms/store/group/snt/run2_25ns_80MiniAODv2_fastsim/SMS-T1tttt_TuneCUETP8M1_13TeV-madgraphMLM-pythia8_RunIISpring16MiniAODv2-PUSpring16Fast_80X_mcRun2_asymptotic_2016_miniAODv2_v0-v1/V08-00-09/merged_ntuple_123.root
p169
aV/hadoop/cms/store/group/snt/run2_25ns_80MiniAODv2_fastsim/SMS-T1tttt_TuneCUETP8M1_13TeV-madgraphMLM-pythia8_RunIISpring16MiniAODv2-PUSpring16Fast_80X_mcRun2_asymptotic_2016_miniAODv2_v0-v1/V08-00-09/merged_ntuple_124.root
p170
aV/hadoop/cms/store/group/snt/run2_25ns_80MiniAODv2_fastsim/SMS-T1tttt_TuneCUETP8M1_13TeV-madgraphMLM-pythia8_RunIISpring16MiniAODv2-PUSpring16Fast_80X_mcRun2_asymptotic_2016_miniAODv2_v0-v1/V08-00-09/merged_ntuple_125.root
p171
aV/hadoop/cms/store/group/snt/run2_25ns_80MiniAODv2_fastsim/SMS-T1tttt_TuneCUETP8M1_13TeV-madgraphMLM-pythia8_RunIISpring16MiniAODv2-PUSpring16Fast_80X_mcRun2_asymptotic_2016_miniAODv2_v0-v1/V08-00-09/merged_ntuple_126.root
p172
aV/hadoop/cms/store/group/snt/run2_25ns_80MiniAODv2_fastsim/SMS-T1tttt_TuneCUETP8M1_13TeV-madgraphMLM-pythia8_RunIISpring16MiniAODv2-PUSpring16Fast_80X_mcRun2_asymptotic_2016_miniAODv2_v0-v1/V08-00-09/merged_ntuple_127.root
p173
aV/hadoop/cms/store/group/snt/run2_25ns_80MiniAODv2_fastsim/SMS-T1tttt_TuneCUETP8M1_13TeV-madgraphMLM-pythia8_RunIISpring16MiniAODv2-PUSpring16Fast_80X_mcRun2_asymptotic_2016_miniAODv2_v0-v1/V08-00-09/merged_ntuple_128.root
p174
aV/hadoop/cms/store/group/snt/run2_25ns_80MiniAODv2_fastsim/SMS-T1tttt_TuneCUETP8M1_13TeV-madgraphMLM-pythia8_RunIISpring16MiniAODv2-PUSpring16Fast_80X_mcRun2_asymptotic_2016_miniAODv2_v0-v1/V08-00-09/merged_ntuple_129.root
p175
aV/hadoop/cms/store/group/snt/run2_25ns_80MiniAODv2_fastsim/SMS-T1tttt_TuneCUETP8M1_13TeV-madgraphMLM-pythia8_RunIISpring16MiniAODv2-PUSpring16Fast_80X_mcRun2_asymptotic_2016_miniAODv2_v0-v1/V08-00-09/merged_ntuple_13.root
p176
aV/hadoop/cms/store/group/snt/run2_25ns_80MiniAODv2_fastsim/SMS-T1tttt_TuneCUETP8M1_13TeV-madgraphMLM-pythia8_RunIISpring16MiniAODv2-PUSpring16Fast_80X_mcRun2_asymptotic_2016_miniAODv2_v0-v1/V08-00-09/merged_ntuple_130.root
p177
aV/hadoop/cms/store/group/snt/run2_25ns_80MiniAODv2_fastsim/SMS-T1tttt_TuneCUETP8M1_13TeV-madgraphMLM-pythia8_RunIISpring16MiniAODv2-PUSpring16Fast_80X_mcRun2_asymptotic_2016_miniAODv2_v0-v1/V08-00-09/merged_ntuple_131.root
p178
aV/hadoop/cms/store/group/snt/run2_25ns_80MiniAODv2_fastsim/SMS-T1tttt_TuneCUETP8M1_13TeV-madgraphMLM-pythia8_RunIISpring16MiniAODv2-PUSpring16Fast_80X_mcRun2_asymptotic_2016_miniAODv2_v0-v1/V08-00-09/merged_ntuple_132.root
p179
aV/hadoop/cms/store/group/snt/run2_25ns_80MiniAODv2_fastsim/SMS-T1tttt_TuneCUETP8M1_13TeV-madgraphMLM-pythia8_RunIISpring16MiniAODv2-PUSpring16Fast_80X_mcRun2_asymptotic_2016_miniAODv2_v0-v1/V08-00-09/merged_ntuple_133.root
p180
aV/hadoop/cms/store/group/snt/run2_25ns_80MiniAODv2_fastsim/SMS-T1tttt_TuneCUETP8M1_13TeV-madgraphMLM-pythia8_RunIISpring16MiniAODv2-PUSpring16Fast_80X_mcRun2_asymptotic_2016_miniAODv2_v0-v1/V08-00-09/merged_ntuple_134.root
p181
aV/hadoop/cms/store/group/snt/run2_25ns_80MiniAODv2_fastsim/SMS-T1tttt_TuneCUETP8M1_13TeV-madgraphMLM-pythia8_RunIISpring16MiniAODv2-PUSpring16Fast_80X_mcRun2_asymptotic_2016_miniAODv2_v0-v1/V08-00-09/merged_ntuple_135.root
p182
aV/hadoop/cms/store/group/snt/run2_25ns_80MiniAODv2_fastsim/SMS-T1tttt_TuneCUETP8M1_13TeV-madgraphMLM-pythia8_RunIISpring16MiniAODv2-PUSpring16Fast_80X_mcRun2_asymptotic_2016_miniAODv2_v0-v1/V08-00-09/merged_ntuple_136.root
p183
aV/hadoop/cms/store/group/snt/run2_25ns_80MiniAODv2_fastsim/SMS-T1tttt_TuneCUETP8M1_13TeV-madgraphMLM-pythia8_RunIISpring16MiniAODv2-PUSpring16Fast_80X_mcRun2_asymptotic_2016_miniAODv2_v0-v1/V08-00-09/merged_ntuple_137.root
p184
aV/hadoop/cms/store/group/snt/run2_25ns_80MiniAODv2_fastsim/SMS-T1tttt_TuneCUETP8M1_13TeV-madgraphMLM-pythia8_RunIISpring16MiniAODv2-PUSpring16Fast_80X_mcRun2_asymptotic_2016_miniAODv2_v0-v1/V08-00-09/merged_ntuple_138.root
p185
aV/hadoop/cms/store/group/snt/run2_25ns_80MiniAODv2_fastsim/SMS-T1tttt_TuneCUETP8M1_13TeV-madgraphMLM-pythia8_RunIISpring16MiniAODv2-PUSpring16Fast_80X_mcRun2_asymptotic_2016_miniAODv2_v0-v1/V08-00-09/merged_ntuple_139.root
p186
aV/hadoop/cms/store/group/snt/run2_25ns_80MiniAODv2_fastsim/SMS-T1tttt_TuneCUETP8M1_13TeV-madgraphMLM-pythia8_RunIISpring16MiniAODv2-PUSpring16Fast_80X_mcRun2_asymptotic_2016_miniAODv2_v0-v1/V08-00-09/merged_ntuple_14.root
p187
aV/hadoop/cms/store/group/snt/run2_25ns_80MiniAODv2_fastsim/SMS-T1tttt_TuneCUETP8M1_13TeV-madgraphMLM-pythia8_RunIISpring16MiniAODv2-PUSpring16Fast_80X_mcRun2_asymptotic_2016_miniAODv2_v0-v1/V08-00-09/merged_ntuple_140.root
p188
aV/hadoop/cms/store/group/snt/run2_25ns_80MiniAODv2_fastsim/SMS-T1tttt_TuneCUETP8M1_13TeV-madgraphMLM-pythia8_RunIISpring16MiniAODv2-PUSpring16Fast_80X_mcRun2_asymptotic_2016_miniAODv2_v0-v1/V08-00-09/merged_ntuple_141.root
p189
aV/hadoop/cms/store/group/snt/run2_25ns_80MiniAODv2_fastsim/SMS-T1tttt_TuneCUETP8M1_13TeV-madgraphMLM-pythia8_RunIISpring16MiniAODv2-PUSpring16Fast_80X_mcRun2_asymptotic_2016_miniAODv2_v0-v1/V08-00-09/merged_ntuple_142.root
p190
aV/hadoop/cms/store/group/snt/run2_25ns_80MiniAODv2_fastsim/SMS-T1tttt_TuneCUETP8M1_13TeV-madgraphMLM-pythia8_RunIISpring16MiniAODv2-PUSpring16Fast_80X_mcRun2_asymptotic_2016_miniAODv2_v0-v1/V08-00-09/merged_ntuple_143.root
p191
aV/hadoop/cms/store/group/snt/run2_25ns_80MiniAODv2_fastsim/SMS-T1tttt_TuneCUETP8M1_13TeV-madgraphMLM-pythia8_RunIISpring16MiniAODv2-PUSpring16Fast_80X_mcRun2_asymptotic_2016_miniAODv2_v0-v1/V08-00-09/merged_ntuple_144.root
p192
aV/hadoop/cms/store/group/snt/run2_25ns_80MiniAODv2_fastsim/SMS-T1tttt_TuneCUETP8M1_13TeV-madgraphMLM-pythia8_RunIISpring16MiniAODv2-PUSpring16Fast_80X_mcRun2_asymptotic_2016_miniAODv2_v0-v1/V08-00-09/merged_ntuple_145.root
p193
aV/hadoop/cms/store/group/snt/run2_25ns_80MiniAODv2_fastsim/SMS-T1tttt_TuneCUETP8M1_13TeV-madgraphMLM-pythia8_RunIISpring16MiniAODv2-PUSpring16Fast_80X_mcRun2_asymptotic_2016_miniAODv2_v0-v1/V08-00-09/merged_ntuple_146.root
p194
aV/hadoop/cms/store/group/snt/run2_25ns_80MiniAODv2_fastsim/SMS-T1tttt_TuneCUETP8M1_13TeV-madgraphMLM-pythia8_RunIISpring16MiniAODv2-PUSpring16Fast_80X_mcRun2_asymptotic_2016_miniAODv2_v0-v1/V08-00-09/merged_ntuple_147.root
p195
aV/hadoop/cms/store/group/snt/run2_25ns_80MiniAODv2_fastsim/SMS-T1tttt_TuneCUETP8M1_13TeV-madgraphMLM-pythia8_RunIISpring16MiniAODv2-PUSpring16Fast_80X_mcRun2_asymptotic_2016_miniAODv2_v0-v1/V08-00-09/merged_ntuple_148.root
p196
aV/hadoop/cms/store/group/snt/run2_25ns_80MiniAODv2_fastsim/SMS-T1tttt_TuneCUETP8M1_13TeV-madgraphMLM-pythia8_RunIISpring16MiniAODv2-PUSpring16Fast_80X_mcRun2_asymptotic_2016_miniAODv2_v0-v1/V08-00-09/merged_ntuple_149.root
p197
aV/hadoop/cms/store/group/snt/run2_25ns_80MiniAODv2_fastsim/SMS-T1tttt_TuneCUETP8M1_13TeV-madgraphMLM-pythia8_RunIISpring16MiniAODv2-PUSpring16Fast_80X_mcRun2_asymptotic_2016_miniAODv2_v0-v1/V08-00-09/merged_ntuple_15.root
p198
aV/hadoop/cms/store/group/snt/run2_25ns_80MiniAODv2_fastsim/SMS-T1tttt_TuneCUETP8M1_13TeV-madgraphMLM-pythia8_RunIISpring16MiniAODv2-PUSpring16Fast_80X_mcRun2_asymptotic_2016_miniAODv2_v0-v1/V08-00-09/merged_ntuple_150.root
p199
aV/hadoop/cms/store/group/snt/run2_25ns_80MiniAODv2_fastsim/SMS-T1tttt_TuneCUETP8M1_13TeV-madgraphMLM-pythia8_RunIISpring16MiniAODv2-PUSpring16Fast_80X_mcRun2_asymptotic_2016_miniAODv2_v0-v1/V08-00-09/merged_ntuple_151.root
p200
aV/hadoop/cms/store/group/snt/run2_25ns_80MiniAODv2_fastsim/SMS-T1tttt_TuneCUETP8M1_13TeV-madgraphMLM-pythia8_RunIISpring16MiniAODv2-PUSpring16Fast_80X_mcRun2_asymptotic_2016_miniAODv2_v0-v1/V08-00-09/merged_ntuple_152.root
p201
aV/hadoop/cms/store/group/snt/run2_25ns_80MiniAODv2_fastsim/SMS-T1tttt_TuneCUETP8M1_13TeV-madgraphMLM-pythia8_RunIISpring16MiniAODv2-PUSpring16Fast_80X_mcRun2_asymptotic_2016_miniAODv2_v0-v1/V08-00-09/merged_ntuple_153.root
p202
aV/hadoop/cms/store/group/snt/run2_25ns_80MiniAODv2_fastsim/SMS-T1tttt_TuneCUETP8M1_13TeV-madgraphMLM-pythia8_RunIISpring16MiniAODv2-PUSpring16Fast_80X_mcRun2_asymptotic_2016_miniAODv2_v0-v1/V08-00-09/merged_ntuple_154.root
p203
aV/hadoop/cms/store/group/snt/run2_25ns_80MiniAODv2_fastsim/SMS-T1tttt_TuneCUETP8M1_13TeV-madgraphMLM-pythia8_RunIISpring16MiniAODv2-PUSpring16Fast_80X_mcRun2_asymptotic_2016_miniAODv2_v0-v1/V08-00-09/merged_ntuple_155.root
p204
aV/hadoop/cms/store/group/snt/run2_25ns_80MiniAODv2_fastsim/SMS-T1tttt_TuneCUETP8M1_13TeV-madgraphMLM-pythia8_RunIISpring16MiniAODv2-PUSpring16Fast_80X_mcRun2_asymptotic_2016_miniAODv2_v0-v1/V08-00-09/merged_ntuple_156.root
p205
aV/hadoop/cms/store/group/snt/run2_25ns_80MiniAODv2_fastsim/SMS-T1tttt_TuneCUETP8M1_13TeV-madgraphMLM-pythia8_RunIISpring16MiniAODv2-PUSpring16Fast_80X_mcRun2_asymptotic_2016_miniAODv2_v0-v1/V08-00-09/merged_ntuple_157.root
p206
aV/hadoop/cms/store/group/snt/run2_25ns_80MiniAODv2_fastsim/SMS-T1tttt_TuneCUETP8M1_13TeV-madgraphMLM-pythia8_RunIISpring16MiniAODv2-PUSpring16Fast_80X_mcRun2_asymptotic_2016_miniAODv2_v0-v1/V08-00-09/merged_ntuple_158.root
p207
aV/hadoop/cms/store/group/snt/run2_25ns_80MiniAODv2_fastsim/SMS-T1tttt_TuneCUETP8M1_13TeV-madgraphMLM-pythia8_RunIISpring16MiniAODv2-PUSpring16Fast_80X_mcRun2_asymptotic_2016_miniAODv2_v0-v1/V08-00-09/merged_ntuple_159.root
p208
aV/hadoop/cms/store/group/snt/run2_25ns_80MiniAODv2_fastsim/SMS-T1tttt_TuneCUETP8M1_13TeV-madgraphMLM-pythia8_RunIISpring16MiniAODv2-PUSpring16Fast_80X_mcRun2_asymptotic_2016_miniAODv2_v0-v1/V08-00-09/merged_ntuple_16.root
p209
aV/hadoop/cms/store/group/snt/run2_25ns_80MiniAODv2_fastsim/SMS-T1tttt_TuneCUETP8M1_13TeV-madgraphMLM-pythia8_RunIISpring16MiniAODv2-PUSpring16Fast_80X_mcRun2_asymptotic_2016_miniAODv2_v0-v1/V08-00-09/merged_ntuple_160.root
p210
aV/hadoop/cms/store/group/snt/run2_25ns_80MiniAODv2_fastsim/SMS-T1tttt_TuneCUETP8M1_13TeV-madgraphMLM-pythia8_RunIISpring16MiniAODv2-PUSpring16Fast_80X_mcRun2_asymptotic_2016_miniAODv2_v0-v1/V08-00-09/merged_ntuple_161.root
p211
aV/hadoop/cms/store/group/snt/run2_25ns_80MiniAODv2_fastsim/SMS-T1tttt_TuneCUETP8M1_13TeV-madgraphMLM-pythia8_RunIISpring16MiniAODv2-PUSpring16Fast_80X_mcRun2_asymptotic_2016_miniAODv2_v0-v1/V08-00-09/merged_ntuple_162.root
p212
aV/hadoop/cms/store/group/snt/run2_25ns_80MiniAODv2_fastsim/SMS-T1tttt_TuneCUETP8M1_13TeV-madgraphMLM-pythia8_RunIISpring16MiniAODv2-PUSpring16Fast_80X_mcRun2_asymptotic_2016_miniAODv2_v0-v1/V08-00-09/merged_ntuple_163.root
p213
aV/hadoop/cms/store/group/snt/run2_25ns_80MiniAODv2_fastsim/SMS-T1tttt_TuneCUETP8M1_13TeV-madgraphMLM-pythia8_RunIISpring16MiniAODv2-PUSpring16Fast_80X_mcRun2_asymptotic_2016_miniAODv2_v0-v1/V08-00-09/merged_ntuple_164.root
p214
aV/hadoop/cms/store/group/snt/run2_25ns_80MiniAODv2_fastsim/SMS-T1tttt_TuneCUETP8M1_13TeV-madgraphMLM-pythia8_RunIISpring16MiniAODv2-PUSpring16Fast_80X_mcRun2_asymptotic_2016_miniAODv2_v0-v1/V08-00-09/merged_ntuple_165.root
p215
aV/hadoop/cms/store/group/snt/run2_25ns_80MiniAODv2_fastsim/SMS-T1tttt_TuneCUETP8M1_13TeV-madgraphMLM-pythia8_RunIISpring16MiniAODv2-PUSpring16Fast_80X_mcRun2_asymptotic_2016_miniAODv2_v0-v1/V08-00-09/merged_ntuple_166.root
p216
aV/hadoop/cms/store/group/snt/run2_25ns_80MiniAODv2_fastsim/SMS-T1tttt_TuneCUETP8M1_13TeV-madgraphMLM-pythia8_RunIISpring16MiniAODv2-PUSpring16Fast_80X_mcRun2_asymptotic_2016_miniAODv2_v0-v1/V08-00-09/merged_ntuple_167.root
p217
aV/hadoop/cms/store/group/snt/run2_25ns_80MiniAODv2_fastsim/SMS-T1tttt_TuneCUETP8M1_13TeV-madgraphMLM-pythia8_RunIISpring16MiniAODv2-PUSpring16Fast_80X_mcRun2_asymptotic_2016_miniAODv2_v0-v1/V08-00-09/merged_ntuple_168.root
p218
aV/hadoop/cms/store/group/snt/run2_25ns_80MiniAODv2_fastsim/SMS-T1tttt_TuneCUETP8M1_13TeV-madgraphMLM-pythia8_RunIISpring16MiniAODv2-PUSpring16Fast_80X_mcRun2_asymptotic_2016_miniAODv2_v0-v1/V08-00-09/merged_ntuple_169.root
p219
aV/hadoop/cms/store/group/snt/run2_25ns_80MiniAODv2_fastsim/SMS-T1tttt_TuneCUETP8M1_13TeV-madgraphMLM-pythia8_RunIISpring16MiniAODv2-PUSpring16Fast_80X_mcRun2_asymptotic_2016_miniAODv2_v0-v1/V08-00-09/merged_ntuple_17.root
p220
aV/hadoop/cms/store/group/snt/run2_25ns_80MiniAODv2_fastsim/SMS-T1tttt_TuneCUETP8M1_13TeV-madgraphMLM-pythia8_RunIISpring16MiniAODv2-PUSpring16Fast_80X_mcRun2_asymptotic_2016_miniAODv2_v0-v1/V08-00-09/merged_ntuple_170.root
p221
aV/hadoop/cms/store/group/snt/run2_25ns_80MiniAODv2_fastsim/SMS-T1tttt_TuneCUETP8M1_13TeV-madgraphMLM-pythia8_RunIISpring16MiniAODv2-PUSpring16Fast_80X_mcRun2_asymptotic_2016_miniAODv2_v0-v1/V08-00-09/merged_ntuple_171.root
p222
aV/hadoop/cms/store/group/snt/run2_25ns_80MiniAODv2_fastsim/SMS-T1tttt_TuneCUETP8M1_13TeV-madgraphMLM-pythia8_RunIISpring16MiniAODv2-PUSpring16Fast_80X_mcRun2_asymptotic_2016_miniAODv2_v0-v1/V08-00-09/merged_ntuple_172.root
p223
aV/hadoop/cms/store/group/snt/run2_25ns_80MiniAODv2_fastsim/SMS-T1tttt_TuneCUETP8M1_13TeV-madgraphMLM-pythia8_RunIISpring16MiniAODv2-PUSpring16Fast_80X_mcRun2_asymptotic_2016_miniAODv2_v0-v1/V08-00-09/merged_ntuple_173.root
p224
aV/hadoop/cms/store/group/snt/run2_25ns_80MiniAODv2_fastsim/SMS-T1tttt_TuneCUETP8M1_13TeV-madgraphMLM-pythia8_RunIISpring16MiniAODv2-PUSpring16Fast_80X_mcRun2_asymptotic_2016_miniAODv2_v0-v1/V08-00-09/merged_ntuple_174.root
p225
aV/hadoop/cms/store/group/snt/run2_25ns_80MiniAODv2_fastsim/SMS-T1tttt_TuneCUETP8M1_13TeV-madgraphMLM-pythia8_RunIISpring16MiniAODv2-PUSpring16Fast_80X_mcRun2_asymptotic_2016_miniAODv2_v0-v1/V08-00-09/merged_ntuple_175.root
p226
aV/hadoop/cms/store/group/snt/run2_25ns_80MiniAODv2_fastsim/SMS-T1tttt_TuneCUETP8M1_13TeV-madgraphMLM-pythia8_RunIISpring16MiniAODv2-PUSpring16Fast_80X_mcRun2_asymptotic_2016_miniAODv2_v0-v1/V08-00-09/merged_ntuple_176.root
p227
aV/hadoop/cms/store/group/snt/run2_25ns_80MiniAODv2_fastsim/SMS-T1tttt_TuneCUETP8M1_13TeV-madgraphMLM-pythia8_RunIISpring16MiniAODv2-PUSpring16Fast_80X_mcRun2_asymptotic_2016_miniAODv2_v0-v1/V08-00-09/merged_ntuple_177.root
p228
aV/hadoop/cms/store/group/snt/run2_25ns_80MiniAODv2_fastsim/SMS-T1tttt_TuneCUETP8M1_13TeV-madgraphMLM-pythia8_RunIISpring16MiniAODv2-PUSpring16Fast_80X_mcRun2_asymptotic_2016_miniAODv2_v0-v1/V08-00-09/merged_ntuple_178.root
p229
aV/hadoop/cms/store/group/snt/run2_25ns_80MiniAODv2_fastsim/SMS-T1tttt_TuneCUETP8M1_13TeV-madgraphMLM-pythia8_RunIISpring16MiniAODv2-PUSpring16Fast_80X_mcRun2_asymptotic_2016_miniAODv2_v0-v1/V08-00-09/merged_ntuple_179.root
p230
aV/hadoop/cms/store/group/snt/run2_25ns_80MiniAODv2_fastsim/SMS-T1tttt_TuneCUETP8M1_13TeV-madgraphMLM-pythia8_RunIISpring16MiniAODv2-PUSpring16Fast_80X_mcRun2_asymptotic_2016_miniAODv2_v0-v1/V08-00-09/merged_ntuple_18.root
p231
aV/hadoop/cms/store/group/snt/run2_25ns_80MiniAODv2_fastsim/SMS-T1tttt_TuneCUETP8M1_13TeV-madgraphMLM-pythia8_RunIISpring16MiniAODv2-PUSpring16Fast_80X_mcRun2_asymptotic_2016_miniAODv2_v0-v1/V08-00-09/merged_ntuple_180.root
p232
aV/hadoop/cms/store/group/snt/run2_25ns_80MiniAODv2_fastsim/SMS-T1tttt_TuneCUETP8M1_13TeV-madgraphMLM-pythia8_RunIISpring16MiniAODv2-PUSpring16Fast_80X_mcRun2_asymptotic_2016_miniAODv2_v0-v1/V08-00-09/merged_ntuple_181.root
p233
aV/hadoop/cms/store/group/snt/run2_25ns_80MiniAODv2_fastsim/SMS-T1tttt_TuneCUETP8M1_13TeV-madgraphMLM-pythia8_RunIISpring16MiniAODv2-PUSpring16Fast_80X_mcRun2_asymptotic_2016_miniAODv2_v0-v1/V08-00-09/merged_ntuple_182.root
p234
aV/hadoop/cms/store/group/snt/run2_25ns_80MiniAODv2_fastsim/SMS-T1tttt_TuneCUETP8M1_13TeV-madgraphMLM-pythia8_RunIISpring16MiniAODv2-PUSpring16Fast_80X_mcRun2_asymptotic_2016_miniAODv2_v0-v1/V08-00-09/merged_ntuple_183.root
p235
aV/hadoop/cms/store/group/snt/run2_25ns_80MiniAODv2_fastsim/SMS-T1tttt_TuneCUETP8M1_13TeV-madgraphMLM-pythia8_RunIISpring16MiniAODv2-PUSpring16Fast_80X_mcRun2_asymptotic_2016_miniAODv2_v0-v1/V08-00-09/merged_ntuple_184.root
p236
aV/hadoop/cms/store/group/snt/run2_25ns_80MiniAODv2_fastsim/SMS-T1tttt_TuneCUETP8M1_13TeV-madgraphMLM-pythia8_RunIISpring16MiniAODv2-PUSpring16Fast_80X_mcRun2_asymptotic_2016_miniAODv2_v0-v1/V08-00-09/merged_ntuple_185.root
p237
aV/hadoop/cms/store/group/snt/run2_25ns_80MiniAODv2_fastsim/SMS-T1tttt_TuneCUETP8M1_13TeV-madgraphMLM-pythia8_RunIISpring16MiniAODv2-PUSpring16Fast_80X_mcRun2_asymptotic_2016_miniAODv2_v0-v1/V08-00-09/merged_ntuple_186.root
p238
aV/hadoop/cms/store/group/snt/run2_25ns_80MiniAODv2_fastsim/SMS-T1tttt_TuneCUETP8M1_13TeV-madgraphMLM-pythia8_RunIISpring16MiniAODv2-PUSpring16Fast_80X_mcRun2_asymptotic_2016_miniAODv2_v0-v1/V08-00-09/merged_ntuple_187.root
p239
aV/hadoop/cms/store/group/snt/run2_25ns_80MiniAODv2_fastsim/SMS-T1tttt_TuneCUETP8M1_13TeV-madgraphMLM-pythia8_RunIISpring16MiniAODv2-PUSpring16Fast_80X_mcRun2_asymptotic_2016_miniAODv2_v0-v1/V08-00-09/merged_ntuple_188.root
p240
aV/hadoop/cms/store/group/snt/run2_25ns_80MiniAODv2_fastsim/SMS-T1tttt_TuneCUETP8M1_13TeV-madgraphMLM-pythia8_RunIISpring16MiniAODv2-PUSpring16Fast_80X_mcRun2_asymptotic_2016_miniAODv2_v0-v1/V08-00-09/merged_ntuple_189.root
p241
aV/hadoop/cms/store/group/snt/run2_25ns_80MiniAODv2_fastsim/SMS-T1tttt_TuneCUETP8M1_13TeV-madgraphMLM-pythia8_RunIISpring16MiniAODv2-PUSpring16Fast_80X_mcRun2_asymptotic_2016_miniAODv2_v0-v1/V08-00-09/merged_ntuple_19.root
p242
aV/hadoop/cms/store/group/snt/run2_25ns_80MiniAODv2_fastsim/SMS-T1tttt_TuneCUETP8M1_13TeV-madgraphMLM-pythia8_RunIISpring16MiniAODv2-PUSpring16Fast_80X_mcRun2_asymptotic_2016_miniAODv2_v0-v1/V08-00-09/merged_ntuple_190.root
p243
aV/hadoop/cms/store/group/snt/run2_25ns_80MiniAODv2_fastsim/SMS-T1tttt_TuneCUETP8M1_13TeV-madgraphMLM-pythia8_RunIISpring16MiniAODv2-PUSpring16Fast_80X_mcRun2_asymptotic_2016_miniAODv2_v0-v1/V08-00-09/merged_ntuple_191.root
p244
aV/hadoop/cms/store/group/snt/run2_25ns_80MiniAODv2_fastsim/SMS-T1tttt_TuneCUETP8M1_13TeV-madgraphMLM-pythia8_RunIISpring16MiniAODv2-PUSpring16Fast_80X_mcRun2_asymptotic_2016_miniAODv2_v0-v1/V08-00-09/merged_ntuple_192.root
p245
aV/hadoop/cms/store/group/snt/run2_25ns_80MiniAODv2_fastsim/SMS-T1tttt_TuneCUETP8M1_13TeV-madgraphMLM-pythia8_RunIISpring16MiniAODv2-PUSpring16Fast_80X_mcRun2_asymptotic_2016_miniAODv2_v0-v1/V08-00-09/merged_ntuple_193.root
p246
aV/hadoop/cms/store/group/snt/run2_25ns_80MiniAODv2_fastsim/SMS-T1tttt_TuneCUETP8M1_13TeV-madgraphMLM-pythia8_RunIISpring16MiniAODv2-PUSpring16Fast_80X_mcRun2_asymptotic_2016_miniAODv2_v0-v1/V08-00-09/merged_ntuple_194.root
p247
aV/hadoop/cms/store/group/snt/run2_25ns_80MiniAODv2_fastsim/SMS-T1tttt_TuneCUETP8M1_13TeV-madgraphMLM-pythia8_RunIISpring16MiniAODv2-PUSpring16Fast_80X_mcRun2_asymptotic_2016_miniAODv2_v0-v1/V08-00-09/merged_ntuple_195.root
p248
aV/hadoop/cms/store/group/snt/run2_25ns_80MiniAODv2_fastsim/SMS-T1tttt_TuneCUETP8M1_13TeV-madgraphMLM-pythia8_RunIISpring16MiniAODv2-PUSpring16Fast_80X_mcRun2_asymptotic_2016_miniAODv2_v0-v1/V08-00-09/merged_ntuple_196.root
p249
aV/hadoop/cms/store/group/snt/run2_25ns_80MiniAODv2_fastsim/SMS-T1tttt_TuneCUETP8M1_13TeV-madgraphMLM-pythia8_RunIISpring16MiniAODv2-PUSpring16Fast_80X_mcRun2_asymptotic_2016_miniAODv2_v0-v1/V08-00-09/merged_ntuple_197.root
p250
aV/hadoop/cms/store/group/snt/run2_25ns_80MiniAODv2_fastsim/SMS-T1tttt_TuneCUETP8M1_13TeV-madgraphMLM-pythia8_RunIISpring16MiniAODv2-PUSpring16Fast_80X_mcRun2_asymptotic_2016_miniAODv2_v0-v1/V08-00-09/merged_ntuple_198.root
p251
aV/hadoop/cms/store/group/snt/run2_25ns_80MiniAODv2_fastsim/SMS-T1tttt_TuneCUETP8M1_13TeV-madgraphMLM-pythia8_RunIISpring16MiniAODv2-PUSpring16Fast_80X_mcRun2_asymptotic_2016_miniAODv2_v0-v1/V08-00-09/merged_ntuple_199.root
p252
aV/hadoop/cms/store/group/snt/run2_25ns_80MiniAODv2_fastsim/SMS-T1tttt_TuneCUETP8M1_13TeV-madgraphMLM-pythia8_RunIISpring16MiniAODv2-PUSpring16Fast_80X_mcRun2_asymptotic_2016_miniAODv2_v0-v1/V08-00-09/merged_ntuple_2.root
p253
aV/hadoop/cms/store/group/snt/run2_25ns_80MiniAODv2_fastsim/SMS-T1tttt_TuneCUETP8M1_13TeV-madgraphMLM-pythia8_RunIISpring16MiniAODv2-PUSpring16Fast_80X_mcRun2_asymptotic_2016_miniAODv2_v0-v1/V08-00-09/merged_ntuple_20.root
p254
aV/hadoop/cms/store/group/snt/run2_25ns_80MiniAODv2_fastsim/SMS-T1tttt_TuneCUETP8M1_13TeV-madgraphMLM-pythia8_RunIISpring16MiniAODv2-PUSpring16Fast_80X_mcRun2_asymptotic_2016_miniAODv2_v0-v1/V08-00-09/merged_ntuple_200.root
p255
aV/hadoop/cms/store/group/snt/run2_25ns_80MiniAODv2_fastsim/SMS-T1tttt_TuneCUETP8M1_13TeV-madgraphMLM-pythia8_RunIISpring16MiniAODv2-PUSpring16Fast_80X_mcRun2_asymptotic_2016_miniAODv2_v0-v1/V08-00-09/merged_ntuple_201.root
p256
aV/hadoop/cms/store/group/snt/run2_25ns_80MiniAODv2_fastsim/SMS-T1tttt_TuneCUETP8M1_13TeV-madgraphMLM-pythia8_RunIISpring16MiniAODv2-PUSpring16Fast_80X_mcRun2_asymptotic_2016_miniAODv2_v0-v1/V08-00-09/merged_ntuple_202.root
p257
aV/hadoop/cms/store/group/snt/run2_25ns_80MiniAODv2_fastsim/SMS-T1tttt_TuneCUETP8M1_13TeV-madgraphMLM-pythia8_RunIISpring16MiniAODv2-PUSpring16Fast_80X_mcRun2_asymptotic_2016_miniAODv2_v0-v1/V08-00-09/merged_ntuple_203.root
p258
aV/hadoop/cms/store/group/snt/run2_25ns_80MiniAODv2_fastsim/SMS-T1tttt_TuneCUETP8M1_13TeV-madgraphMLM-pythia8_RunIISpring16MiniAODv2-PUSpring16Fast_80X_mcRun2_asymptotic_2016_miniAODv2_v0-v1/V08-00-09/merged_ntuple_204.root
p259
aV/hadoop/cms/store/group/snt/run2_25ns_80MiniAODv2_fastsim/SMS-T1tttt_TuneCUETP8M1_13TeV-madgraphMLM-pythia8_RunIISpring16MiniAODv2-PUSpring16Fast_80X_mcRun2_asymptotic_2016_miniAODv2_v0-v1/V08-00-09/merged_ntuple_205.root
p260
aV/hadoop/cms/store/group/snt/run2_25ns_80MiniAODv2_fastsim/SMS-T1tttt_TuneCUETP8M1_13TeV-madgraphMLM-pythia8_RunIISpring16MiniAODv2-PUSpring16Fast_80X_mcRun2_asymptotic_2016_miniAODv2_v0-v1/V08-00-09/merged_ntuple_206.root
p261
aV/hadoop/cms/store/group/snt/run2_25ns_80MiniAODv2_fastsim/SMS-T1tttt_TuneCUETP8M1_13TeV-madgraphMLM-pythia8_RunIISpring16MiniAODv2-PUSpring16Fast_80X_mcRun2_asymptotic_2016_miniAODv2_v0-v1/V08-00-09/merged_ntuple_207.root
p262
aV/hadoop/cms/store/group/snt/run2_25ns_80MiniAODv2_fastsim/SMS-T1tttt_TuneCUETP8M1_13TeV-madgraphMLM-pythia8_RunIISpring16MiniAODv2-PUSpring16Fast_80X_mcRun2_asymptotic_2016_miniAODv2_v0-v1/V08-00-09/merged_ntuple_208.root
p263
aV/hadoop/cms/store/group/snt/run2_25ns_80MiniAODv2_fastsim/SMS-T1tttt_TuneCUETP8M1_13TeV-madgraphMLM-pythia8_RunIISpring16MiniAODv2-PUSpring16Fast_80X_mcRun2_asymptotic_2016_miniAODv2_v0-v1/V08-00-09/merged_ntuple_209.root
p264
aV/hadoop/cms/store/group/snt/run2_25ns_80MiniAODv2_fastsim/SMS-T1tttt_TuneCUETP8M1_13TeV-madgraphMLM-pythia8_RunIISpring16MiniAODv2-PUSpring16Fast_80X_mcRun2_asymptotic_2016_miniAODv2_v0-v1/V08-00-09/merged_ntuple_21.root
p265
aV/hadoop/cms/store/group/snt/run2_25ns_80MiniAODv2_fastsim/SMS-T1tttt_TuneCUETP8M1_13TeV-madgraphMLM-pythia8_RunIISpring16MiniAODv2-PUSpring16Fast_80X_mcRun2_asymptotic_2016_miniAODv2_v0-v1/V08-00-09/merged_ntuple_210.root
p266
aV/hadoop/cms/store/group/snt/run2_25ns_80MiniAODv2_fastsim/SMS-T1tttt_TuneCUETP8M1_13TeV-madgraphMLM-pythia8_RunIISpring16MiniAODv2-PUSpring16Fast_80X_mcRun2_asymptotic_2016_miniAODv2_v0-v1/V08-00-09/merged_ntuple_211.root
p267
aV/hadoop/cms/store/group/snt/run2_25ns_80MiniAODv2_fastsim/SMS-T1tttt_TuneCUETP8M1_13TeV-madgraphMLM-pythia8_RunIISpring16MiniAODv2-PUSpring16Fast_80X_mcRun2_asymptotic_2016_miniAODv2_v0-v1/V08-00-09/merged_ntuple_212.root
p268
aV/hadoop/cms/store/group/snt/run2_25ns_80MiniAODv2_fastsim/SMS-T1tttt_TuneCUETP8M1_13TeV-madgraphMLM-pythia8_RunIISpring16MiniAODv2-PUSpring16Fast_80X_mcRun2_asymptotic_2016_miniAODv2_v0-v1/V08-00-09/merged_ntuple_213.root
p269
aV/hadoop/cms/store/group/snt/run2_25ns_80MiniAODv2_fastsim/SMS-T1tttt_TuneCUETP8M1_13TeV-madgraphMLM-pythia8_RunIISpring16MiniAODv2-PUSpring16Fast_80X_mcRun2_asymptotic_2016_miniAODv2_v0-v1/V08-00-09/merged_ntuple_214.root
p270
aV/hadoop/cms/store/group/snt/run2_25ns_80MiniAODv2_fastsim/SMS-T1tttt_TuneCUETP8M1_13TeV-madgraphMLM-pythia8_RunIISpring16MiniAODv2-PUSpring16Fast_80X_mcRun2_asymptotic_2016_miniAODv2_v0-v1/V08-00-09/merged_ntuple_215.root
p271
aV/hadoop/cms/store/group/snt/run2_25ns_80MiniAODv2_fastsim/SMS-T1tttt_TuneCUETP8M1_13TeV-madgraphMLM-pythia8_RunIISpring16MiniAODv2-PUSpring16Fast_80X_mcRun2_asymptotic_2016_miniAODv2_v0-v1/V08-00-09/merged_ntuple_216.root
p272
aV/hadoop/cms/store/group/snt/run2_25ns_80MiniAODv2_fastsim/SMS-T1tttt_TuneCUETP8M1_13TeV-madgraphMLM-pythia8_RunIISpring16MiniAODv2-PUSpring16Fast_80X_mcRun2_asymptotic_2016_miniAODv2_v0-v1/V08-00-09/merged_ntuple_217.root
p273
aV/hadoop/cms/store/group/snt/run2_25ns_80MiniAODv2_fastsim/SMS-T1tttt_TuneCUETP8M1_13TeV-madgraphMLM-pythia8_RunIISpring16MiniAODv2-PUSpring16Fast_80X_mcRun2_asymptotic_2016_miniAODv2_v0-v1/V08-00-09/merged_ntuple_218.root
p274
aV/hadoop/cms/store/group/snt/run2_25ns_80MiniAODv2_fastsim/SMS-T1tttt_TuneCUETP8M1_13TeV-madgraphMLM-pythia8_RunIISpring16MiniAODv2-PUSpring16Fast_80X_mcRun2_asymptotic_2016_miniAODv2_v0-v1/V08-00-09/merged_ntuple_219.root
p275
aV/hadoop/cms/store/group/snt/run2_25ns_80MiniAODv2_fastsim/SMS-T1tttt_TuneCUETP8M1_13TeV-madgraphMLM-pythia8_RunIISpring16MiniAODv2-PUSpring16Fast_80X_mcRun2_asymptotic_2016_miniAODv2_v0-v1/V08-00-09/merged_ntuple_22.root
p276
aV/hadoop/cms/store/group/snt/run2_25ns_80MiniAODv2_fastsim/SMS-T1tttt_TuneCUETP8M1_13TeV-madgraphMLM-pythia8_RunIISpring16MiniAODv2-PUSpring16Fast_80X_mcRun2_asymptotic_2016_miniAODv2_v0-v1/V08-00-09/merged_ntuple_220.root
p277
aV/hadoop/cms/store/group/snt/run2_25ns_80MiniAODv2_fastsim/SMS-T1tttt_TuneCUETP8M1_13TeV-madgraphMLM-pythia8_RunIISpring16MiniAODv2-PUSpring16Fast_80X_mcRun2_asymptotic_2016_miniAODv2_v0-v1/V08-00-09/merged_ntuple_221.root
p278
aV/hadoop/cms/store/group/snt/run2_25ns_80MiniAODv2_fastsim/SMS-T1tttt_TuneCUETP8M1_13TeV-madgraphMLM-pythia8_RunIISpring16MiniAODv2-PUSpring16Fast_80X_mcRun2_asymptotic_2016_miniAODv2_v0-v1/V08-00-09/merged_ntuple_222.root
p279
aV/hadoop/cms/store/group/snt/run2_25ns_80MiniAODv2_fastsim/SMS-T1tttt_TuneCUETP8M1_13TeV-madgraphMLM-pythia8_RunIISpring16MiniAODv2-PUSpring16Fast_80X_mcRun2_asymptotic_2016_miniAODv2_v0-v1/V08-00-09/merged_ntuple_223.root
p280
aV/hadoop/cms/store/group/snt/run2_25ns_80MiniAODv2_fastsim/SMS-T1tttt_TuneCUETP8M1_13TeV-madgraphMLM-pythia8_RunIISpring16MiniAODv2-PUSpring16Fast_80X_mcRun2_asymptotic_2016_miniAODv2_v0-v1/V08-00-09/merged_ntuple_224.root
p281
aV/hadoop/cms/store/group/snt/run2_25ns_80MiniAODv2_fastsim/SMS-T1tttt_TuneCUETP8M1_13TeV-madgraphMLM-pythia8_RunIISpring16MiniAODv2-PUSpring16Fast_80X_mcRun2_asymptotic_2016_miniAODv2_v0-v1/V08-00-09/merged_ntuple_225.root
p282
aV/hadoop/cms/store/group/snt/run2_25ns_80MiniAODv2_fastsim/SMS-T1tttt_TuneCUETP8M1_13TeV-madgraphMLM-pythia8_RunIISpring16MiniAODv2-PUSpring16Fast_80X_mcRun2_asymptotic_2016_miniAODv2_v0-v1/V08-00-09/merged_ntuple_226.root
p283
aV/hadoop/cms/store/group/snt/run2_25ns_80MiniAODv2_fastsim/SMS-T1tttt_TuneCUETP8M1_13TeV-madgraphMLM-pythia8_RunIISpring16MiniAODv2-PUSpring16Fast_80X_mcRun2_asymptotic_2016_miniAODv2_v0-v1/V08-00-09/merged_ntuple_227.root
p284
aV/hadoop/cms/store/group/snt/run2_25ns_80MiniAODv2_fastsim/SMS-T1tttt_TuneCUETP8M1_13TeV-madgraphMLM-pythia8_RunIISpring16MiniAODv2-PUSpring16Fast_80X_mcRun2_asymptotic_2016_miniAODv2_v0-v1/V08-00-09/merged_ntuple_228.root
p285
aV/hadoop/cms/store/group/snt/run2_25ns_80MiniAODv2_fastsim/SMS-T1tttt_TuneCUETP8M1_13TeV-madgraphMLM-pythia8_RunIISpring16MiniAODv2-PUSpring16Fast_80X_mcRun2_asymptotic_2016_miniAODv2_v0-v1/V08-00-09/merged_ntuple_229.root
p286
aV/hadoop/cms/store/group/snt/run2_25ns_80MiniAODv2_fastsim/SMS-T1tttt_TuneCUETP8M1_13TeV-madgraphMLM-pythia8_RunIISpring16MiniAODv2-PUSpring16Fast_80X_mcRun2_asymptotic_2016_miniAODv2_v0-v1/V08-00-09/merged_ntuple_23.root
p287
aV/hadoop/cms/store/group/snt/run2_25ns_80MiniAODv2_fastsim/SMS-T1tttt_TuneCUETP8M1_13TeV-madgraphMLM-pythia8_RunIISpring16MiniAODv2-PUSpring16Fast_80X_mcRun2_asymptotic_2016_miniAODv2_v0-v1/V08-00-09/merged_ntuple_230.root
p288
aV/hadoop/cms/store/group/snt/run2_25ns_80MiniAODv2_fastsim/SMS-T1tttt_TuneCUETP8M1_13TeV-madgraphMLM-pythia8_RunIISpring16MiniAODv2-PUSpring16Fast_80X_mcRun2_asymptotic_2016_miniAODv2_v0-v1/V08-00-09/merged_ntuple_231.root
p289
aV/hadoop/cms/store/group/snt/run2_25ns_80MiniAODv2_fastsim/SMS-T1tttt_TuneCUETP8M1_13TeV-madgraphMLM-pythia8_RunIISpring16MiniAODv2-PUSpring16Fast_80X_mcRun2_asymptotic_2016_miniAODv2_v0-v1/V08-00-09/merged_ntuple_232.root
p290
aV/hadoop/cms/store/group/snt/run2_25ns_80MiniAODv2_fastsim/SMS-T1tttt_TuneCUETP8M1_13TeV-madgraphMLM-pythia8_RunIISpring16MiniAODv2-PUSpring16Fast_80X_mcRun2_asymptotic_2016_miniAODv2_v0-v1/V08-00-09/merged_ntuple_233.root
p291
aV/hadoop/cms/store/group/snt/run2_25ns_80MiniAODv2_fastsim/SMS-T1tttt_TuneCUETP8M1_13TeV-madgraphMLM-pythia8_RunIISpring16MiniAODv2-PUSpring16Fast_80X_mcRun2_asymptotic_2016_miniAODv2_v0-v1/V08-00-09/merged_ntuple_234.root
p292
aV/hadoop/cms/store/group/snt/run2_25ns_80MiniAODv2_fastsim/SMS-T1tttt_TuneCUETP8M1_13TeV-madgraphMLM-pythia8_RunIISpring16MiniAODv2-PUSpring16Fast_80X_mcRun2_asymptotic_2016_miniAODv2_v0-v1/V08-00-09/merged_ntuple_235.root
p293
aV/hadoop/cms/store/group/snt/run2_25ns_80MiniAODv2_fastsim/SMS-T1tttt_TuneCUETP8M1_13TeV-madgraphMLM-pythia8_RunIISpring16MiniAODv2-PUSpring16Fast_80X_mcRun2_asymptotic_2016_miniAODv2_v0-v1/V08-00-09/merged_ntuple_236.root
p294
aV/hadoop/cms/store/group/snt/run2_25ns_80MiniAODv2_fastsim/SMS-T1tttt_TuneCUETP8M1_13TeV-madgraphMLM-pythia8_RunIISpring16MiniAODv2-PUSpring16Fast_80X_mcRun2_asymptotic_2016_miniAODv2_v0-v1/V08-00-09/merged_ntuple_237.root
p295
aV/hadoop/cms/store/group/snt/run2_25ns_80MiniAODv2_fastsim/SMS-T1tttt_TuneCUETP8M1_13TeV-madgraphMLM-pythia8_RunIISpring16MiniAODv2-PUSpring16Fast_80X_mcRun2_asymptotic_2016_miniAODv2_v0-v1/V08-00-09/merged_ntuple_238.root
p296
aV/hadoop/cms/store/group/snt/run2_25ns_80MiniAODv2_fastsim/SMS-T1tttt_TuneCUETP8M1_13TeV-madgraphMLM-pythia8_RunIISpring16MiniAODv2-PUSpring16Fast_80X_mcRun2_asymptotic_2016_miniAODv2_v0-v1/V08-00-09/merged_ntuple_239.root
p297
aV/hadoop/cms/store/group/snt/run2_25ns_80MiniAODv2_fastsim/SMS-T1tttt_TuneCUETP8M1_13TeV-madgraphMLM-pythia8_RunIISpring16MiniAODv2-PUSpring16Fast_80X_mcRun2_asymptotic_2016_miniAODv2_v0-v1/V08-00-09/merged_ntuple_24.root
p298
aV/hadoop/cms/store/group/snt/run2_25ns_80MiniAODv2_fastsim/SMS-T1tttt_TuneCUETP8M1_13TeV-madgraphMLM-pythia8_RunIISpring16MiniAODv2-PUSpring16Fast_80X_mcRun2_asymptotic_2016_miniAODv2_v0-v1/V08-00-09/merged_ntuple_240.root
p299
aV/hadoop/cms/store/group/snt/run2_25ns_80MiniAODv2_fastsim/SMS-T1tttt_TuneCUETP8M1_13TeV-madgraphMLM-pythia8_RunIISpring16MiniAODv2-PUSpring16Fast_80X_mcRun2_asymptotic_2016_miniAODv2_v0-v1/V08-00-09/merged_ntuple_241.root
p300
aV/hadoop/cms/store/group/snt/run2_25ns_80MiniAODv2_fastsim/SMS-T1tttt_TuneCUETP8M1_13TeV-madgraphMLM-pythia8_RunIISpring16MiniAODv2-PUSpring16Fast_80X_mcRun2_asymptotic_2016_miniAODv2_v0-v1/V08-00-09/merged_ntuple_242.root
p301
aV/hadoop/cms/store/group/snt/run2_25ns_80MiniAODv2_fastsim/SMS-T1tttt_TuneCUETP8M1_13TeV-madgraphMLM-pythia8_RunIISpring16MiniAODv2-PUSpring16Fast_80X_mcRun2_asymptotic_2016_miniAODv2_v0-v1/V08-00-09/merged_ntuple_243.root
p302
aV/hadoop/cms/store/group/snt/run2_25ns_80MiniAODv2_fastsim/SMS-T1tttt_TuneCUETP8M1_13TeV-madgraphMLM-pythia8_RunIISpring16MiniAODv2-PUSpring16Fast_80X_mcRun2_asymptotic_2016_miniAODv2_v0-v1/V08-00-09/merged_ntuple_244.root
p303
aV/hadoop/cms/store/group/snt/run2_25ns_80MiniAODv2_fastsim/SMS-T1tttt_TuneCUETP8M1_13TeV-madgraphMLM-pythia8_RunIISpring16MiniAODv2-PUSpring16Fast_80X_mcRun2_asymptotic_2016_miniAODv2_v0-v1/V08-00-09/merged_ntuple_245.root
p304
aV/hadoop/cms/store/group/snt/run2_25ns_80MiniAODv2_fastsim/SMS-T1tttt_TuneCUETP8M1_13TeV-madgraphMLM-pythia8_RunIISpring16MiniAODv2-PUSpring16Fast_80X_mcRun2_asymptotic_2016_miniAODv2_v0-v1/V08-00-09/merged_ntuple_246.root
p305
aV/hadoop/cms/store/group/snt/run2_25ns_80MiniAODv2_fastsim/SMS-T1tttt_TuneCUETP8M1_13TeV-madgraphMLM-pythia8_RunIISpring16MiniAODv2-PUSpring16Fast_80X_mcRun2_asymptotic_2016_miniAODv2_v0-v1/V08-00-09/merged_ntuple_247.root
p306
aV/hadoop/cms/store/group/snt/run2_25ns_80MiniAODv2_fastsim/SMS-T1tttt_TuneCUETP8M1_13TeV-madgraphMLM-pythia8_RunIISpring16MiniAODv2-PUSpring16Fast_80X_mcRun2_asymptotic_2016_miniAODv2_v0-v1/V08-00-09/merged_ntuple_248.root
p307
aV/hadoop/cms/store/group/snt/run2_25ns_80MiniAODv2_fastsim/SMS-T1tttt_TuneCUETP8M1_13TeV-madgraphMLM-pythia8_RunIISpring16MiniAODv2-PUSpring16Fast_80X_mcRun2_asymptotic_2016_miniAODv2_v0-v1/V08-00-09/merged_ntuple_249.root
p308
aV/hadoop/cms/store/group/snt/run2_25ns_80MiniAODv2_fastsim/SMS-T1tttt_TuneCUETP8M1_13TeV-madgraphMLM-pythia8_RunIISpring16MiniAODv2-PUSpring16Fast_80X_mcRun2_asymptotic_2016_miniAODv2_v0-v1/V08-00-09/merged_ntuple_25.root
p309
aV/hadoop/cms/store/group/snt/run2_25ns_80MiniAODv2_fastsim/SMS-T1tttt_TuneCUETP8M1_13TeV-madgraphMLM-pythia8_RunIISpring16MiniAODv2-PUSpring16Fast_80X_mcRun2_asymptotic_2016_miniAODv2_v0-v1/V08-00-09/merged_ntuple_250.root
p310
aV/hadoop/cms/store/group/snt/run2_25ns_80MiniAODv2_fastsim/SMS-T1tttt_TuneCUETP8M1_13TeV-madgraphMLM-pythia8_RunIISpring16MiniAODv2-PUSpring16Fast_80X_mcRun2_asymptotic_2016_miniAODv2_v0-v1/V08-00-09/merged_ntuple_251.root
p311
aV/hadoop/cms/store/group/snt/run2_25ns_80MiniAODv2_fastsim/SMS-T1tttt_TuneCUETP8M1_13TeV-madgraphMLM-pythia8_RunIISpring16MiniAODv2-PUSpring16Fast_80X_mcRun2_asymptotic_2016_miniAODv2_v0-v1/V08-00-09/merged_ntuple_252.root
p312
aV/hadoop/cms/store/group/snt/run2_25ns_80MiniAODv2_fastsim/SMS-T1tttt_TuneCUETP8M1_13TeV-madgraphMLM-pythia8_RunIISpring16MiniAODv2-PUSpring16Fast_80X_mcRun2_asymptotic_2016_miniAODv2_v0-v1/V08-00-09/merged_ntuple_253.root
p313
aV/hadoop/cms/store/group/snt/run2_25ns_80MiniAODv2_fastsim/SMS-T1tttt_TuneCUETP8M1_13TeV-madgraphMLM-pythia8_RunIISpring16MiniAODv2-PUSpring16Fast_80X_mcRun2_asymptotic_2016_miniAODv2_v0-v1/V08-00-09/merged_ntuple_254.root
p314
aV/hadoop/cms/store/group/snt/run2_25ns_80MiniAODv2_fastsim/SMS-T1tttt_TuneCUETP8M1_13TeV-madgraphMLM-pythia8_RunIISpring16MiniAODv2-PUSpring16Fast_80X_mcRun2_asymptotic_2016_miniAODv2_v0-v1/V08-00-09/merged_ntuple_255.root
p315
aV/hadoop/cms/store/group/snt/run2_25ns_80MiniAODv2_fastsim/SMS-T1tttt_TuneCUETP8M1_13TeV-madgraphMLM-pythia8_RunIISpring16MiniAODv2-PUSpring16Fast_80X_mcRun2_asymptotic_2016_miniAODv2_v0-v1/V08-00-09/merged_ntuple_256.root
p316
aV/hadoop/cms/store/group/snt/run2_25ns_80MiniAODv2_fastsim/SMS-T1tttt_TuneCUETP8M1_13TeV-madgraphMLM-pythia8_RunIISpring16MiniAODv2-PUSpring16Fast_80X_mcRun2_asymptotic_2016_miniAODv2_v0-v1/V08-00-09/merged_ntuple_257.root
p317
aV/hadoop/cms/store/group/snt/run2_25ns_80MiniAODv2_fastsim/SMS-T1tttt_TuneCUETP8M1_13TeV-madgraphMLM-pythia8_RunIISpring16MiniAODv2-PUSpring16Fast_80X_mcRun2_asymptotic_2016_miniAODv2_v0-v1/V08-00-09/merged_ntuple_258.root
p318
aV/hadoop/cms/store/group/snt/run2_25ns_80MiniAODv2_fastsim/SMS-T1tttt_TuneCUETP8M1_13TeV-madgraphMLM-pythia8_RunIISpring16MiniAODv2-PUSpring16Fast_80X_mcRun2_asymptotic_2016_miniAODv2_v0-v1/V08-00-09/merged_ntuple_259.root
p319
aV/hadoop/cms/store/group/snt/run2_25ns_80MiniAODv2_fastsim/SMS-T1tttt_TuneCUETP8M1_13TeV-madgraphMLM-pythia8_RunIISpring16MiniAODv2-PUSpring16Fast_80X_mcRun2_asymptotic_2016_miniAODv2_v0-v1/V08-00-09/merged_ntuple_26.root
p320
aV/hadoop/cms/store/group/snt/run2_25ns_80MiniAODv2_fastsim/SMS-T1tttt_TuneCUETP8M1_13TeV-madgraphMLM-pythia8_RunIISpring16MiniAODv2-PUSpring16Fast_80X_mcRun2_asymptotic_2016_miniAODv2_v0-v1/V08-00-09/merged_ntuple_260.root
p321
aV/hadoop/cms/store/group/snt/run2_25ns_80MiniAODv2_fastsim/SMS-T1tttt_TuneCUETP8M1_13TeV-madgraphMLM-pythia8_RunIISpring16MiniAODv2-PUSpring16Fast_80X_mcRun2_asymptotic_2016_miniAODv2_v0-v1/V08-00-09/merged_ntuple_261.root
p322
aV/hadoop/cms/store/group/snt/run2_25ns_80MiniAODv2_fastsim/SMS-T1tttt_TuneCUETP8M1_13TeV-madgraphMLM-pythia8_RunIISpring16MiniAODv2-PUSpring16Fast_80X_mcRun2_asymptotic_2016_miniAODv2_v0-v1/V08-00-09/merged_ntuple_262.root
p323
aV/hadoop/cms/store/group/snt/run2_25ns_80MiniAODv2_fastsim/SMS-T1tttt_TuneCUETP8M1_13TeV-madgraphMLM-pythia8_RunIISpring16MiniAODv2-PUSpring16Fast_80X_mcRun2_asymptotic_2016_miniAODv2_v0-v1/V08-00-09/merged_ntuple_263.root
p324
aV/hadoop/cms/store/group/snt/run2_25ns_80MiniAODv2_fastsim/SMS-T1tttt_TuneCUETP8M1_13TeV-madgraphMLM-pythia8_RunIISpring16MiniAODv2-PUSpring16Fast_80X_mcRun2_asymptotic_2016_miniAODv2_v0-v1/V08-00-09/merged_ntuple_264.root
p325
aV/hadoop/cms/store/group/snt/run2_25ns_80MiniAODv2_fastsim/SMS-T1tttt_TuneCUETP8M1_13TeV-madgraphMLM-pythia8_RunIISpring16MiniAODv2-PUSpring16Fast_80X_mcRun2_asymptotic_2016_miniAODv2_v0-v1/V08-00-09/merged_ntuple_265.root
p326
aV/hadoop/cms/store/group/snt/run2_25ns_80MiniAODv2_fastsim/SMS-T1tttt_TuneCUETP8M1_13TeV-madgraphMLM-pythia8_RunIISpring16MiniAODv2-PUSpring16Fast_80X_mcRun2_asymptotic_2016_miniAODv2_v0-v1/V08-00-09/merged_ntuple_266.root
p327
aV/hadoop/cms/store/group/snt/run2_25ns_80MiniAODv2_fastsim/SMS-T1tttt_TuneCUETP8M1_13TeV-madgraphMLM-pythia8_RunIISpring16MiniAODv2-PUSpring16Fast_80X_mcRun2_asymptotic_2016_miniAODv2_v0-v1/V08-00-09/merged_ntuple_267.root
p328
aV/hadoop/cms/store/group/snt/run2_25ns_80MiniAODv2_fastsim/SMS-T1tttt_TuneCUETP8M1_13TeV-madgraphMLM-pythia8_RunIISpring16MiniAODv2-PUSpring16Fast_80X_mcRun2_asymptotic_2016_miniAODv2_v0-v1/V08-00-09/merged_ntuple_268.root
p329
aV/hadoop/cms/store/group/snt/run2_25ns_80MiniAODv2_fastsim/SMS-T1tttt_TuneCUETP8M1_13TeV-madgraphMLM-pythia8_RunIISpring16MiniAODv2-PUSpring16Fast_80X_mcRun2_asymptotic_2016_miniAODv2_v0-v1/V08-00-09/merged_ntuple_269.root
p330
aV/hadoop/cms/store/group/snt/run2_25ns_80MiniAODv2_fastsim/SMS-T1tttt_TuneCUETP8M1_13TeV-madgraphMLM-pythia8_RunIISpring16MiniAODv2-PUSpring16Fast_80X_mcRun2_asymptotic_2016_miniAODv2_v0-v1/V08-00-09/merged_ntuple_27.root
p331
aV/hadoop/cms/store/group/snt/run2_25ns_80MiniAODv2_fastsim/SMS-T1tttt_TuneCUETP8M1_13TeV-madgraphMLM-pythia8_RunIISpring16MiniAODv2-PUSpring16Fast_80X_mcRun2_asymptotic_2016_miniAODv2_v0-v1/V08-00-09/merged_ntuple_270.root
p332
aV/hadoop/cms/store/group/snt/run2_25ns_80MiniAODv2_fastsim/SMS-T1tttt_TuneCUETP8M1_13TeV-madgraphMLM-pythia8_RunIISpring16MiniAODv2-PUSpring16Fast_80X_mcRun2_asymptotic_2016_miniAODv2_v0-v1/V08-00-09/merged_ntuple_271.root
p333
aV/hadoop/cms/store/group/snt/run2_25ns_80MiniAODv2_fastsim/SMS-T1tttt_TuneCUETP8M1_13TeV-madgraphMLM-pythia8_RunIISpring16MiniAODv2-PUSpring16Fast_80X_mcRun2_asymptotic_2016_miniAODv2_v0-v1/V08-00-09/merged_ntuple_272.root
p334
aV/hadoop/cms/store/group/snt/run2_25ns_80MiniAODv2_fastsim/SMS-T1tttt_TuneCUETP8M1_13TeV-madgraphMLM-pythia8_RunIISpring16MiniAODv2-PUSpring16Fast_80X_mcRun2_asymptotic_2016_miniAODv2_v0-v1/V08-00-09/merged_ntuple_273.root
p335
aV/hadoop/cms/store/group/snt/run2_25ns_80MiniAODv2_fastsim/SMS-T1tttt_TuneCUETP8M1_13TeV-madgraphMLM-pythia8_RunIISpring16MiniAODv2-PUSpring16Fast_80X_mcRun2_asymptotic_2016_miniAODv2_v0-v1/V08-00-09/merged_ntuple_274.root
p336
aV/hadoop/cms/store/group/snt/run2_25ns_80MiniAODv2_fastsim/SMS-T1tttt_TuneCUETP8M1_13TeV-madgraphMLM-pythia8_RunIISpring16MiniAODv2-PUSpring16Fast_80X_mcRun2_asymptotic_2016_miniAODv2_v0-v1/V08-00-09/merged_ntuple_275.root
p337
aV/hadoop/cms/store/group/snt/run2_25ns_80MiniAODv2_fastsim/SMS-T1tttt_TuneCUETP8M1_13TeV-madgraphMLM-pythia8_RunIISpring16MiniAODv2-PUSpring16Fast_80X_mcRun2_asymptotic_2016_miniAODv2_v0-v1/V08-00-09/merged_ntuple_276.root
p338
aV/hadoop/cms/store/group/snt/run2_25ns_80MiniAODv2_fastsim/SMS-T1tttt_TuneCUETP8M1_13TeV-madgraphMLM-pythia8_RunIISpring16MiniAODv2-PUSpring16Fast_80X_mcRun2_asymptotic_2016_miniAODv2_v0-v1/V08-00-09/merged_ntuple_277.root
p339
aV/hadoop/cms/store/group/snt/run2_25ns_80MiniAODv2_fastsim/SMS-T1tttt_TuneCUETP8M1_13TeV-madgraphMLM-pythia8_RunIISpring16MiniAODv2-PUSpring16Fast_80X_mcRun2_asymptotic_2016_miniAODv2_v0-v1/V08-00-09/merged_ntuple_278.root
p340
aV/hadoop/cms/store/group/snt/run2_25ns_80MiniAODv2_fastsim/SMS-T1tttt_TuneCUETP8M1_13TeV-madgraphMLM-pythia8_RunIISpring16MiniAODv2-PUSpring16Fast_80X_mcRun2_asymptotic_2016_miniAODv2_v0-v1/V08-00-09/merged_ntuple_279.root
p341
aV/hadoop/cms/store/group/snt/run2_25ns_80MiniAODv2_fastsim/SMS-T1tttt_TuneCUETP8M1_13TeV-madgraphMLM-pythia8_RunIISpring16MiniAODv2-PUSpring16Fast_80X_mcRun2_asymptotic_2016_miniAODv2_v0-v1/V08-00-09/merged_ntuple_28.root
p342
aV/hadoop/cms/store/group/snt/run2_25ns_80MiniAODv2_fastsim/SMS-T1tttt_TuneCUETP8M1_13TeV-madgraphMLM-pythia8_RunIISpring16MiniAODv2-PUSpring16Fast_80X_mcRun2_asymptotic_2016_miniAODv2_v0-v1/V08-00-09/merged_ntuple_280.root
p343
aV/hadoop/cms/store/group/snt/run2_25ns_80MiniAODv2_fastsim/SMS-T1tttt_TuneCUETP8M1_13TeV-madgraphMLM-pythia8_RunIISpring16MiniAODv2-PUSpring16Fast_80X_mcRun2_asymptotic_2016_miniAODv2_v0-v1/V08-00-09/merged_ntuple_281.root
p344
aV/hadoop/cms/store/group/snt/run2_25ns_80MiniAODv2_fastsim/SMS-T1tttt_TuneCUETP8M1_13TeV-madgraphMLM-pythia8_RunIISpring16MiniAODv2-PUSpring16Fast_80X_mcRun2_asymptotic_2016_miniAODv2_v0-v1/V08-00-09/merged_ntuple_282.root
p345
aV/hadoop/cms/store/group/snt/run2_25ns_80MiniAODv2_fastsim/SMS-T1tttt_TuneCUETP8M1_13TeV-madgraphMLM-pythia8_RunIISpring16MiniAODv2-PUSpring16Fast_80X_mcRun2_asymptotic_2016_miniAODv2_v0-v1/V08-00-09/merged_ntuple_283.root
p346
aV/hadoop/cms/store/group/snt/run2_25ns_80MiniAODv2_fastsim/SMS-T1tttt_TuneCUETP8M1_13TeV-madgraphMLM-pythia8_RunIISpring16MiniAODv2-PUSpring16Fast_80X_mcRun2_asymptotic_2016_miniAODv2_v0-v1/V08-00-09/merged_ntuple_284.root
p347
aV/hadoop/cms/store/group/snt/run2_25ns_80MiniAODv2_fastsim/SMS-T1tttt_TuneCUETP8M1_13TeV-madgraphMLM-pythia8_RunIISpring16MiniAODv2-PUSpring16Fast_80X_mcRun2_asymptotic_2016_miniAODv2_v0-v1/V08-00-09/merged_ntuple_285.root
p348
aV/hadoop/cms/store/group/snt/run2_25ns_80MiniAODv2_fastsim/SMS-T1tttt_TuneCUETP8M1_13TeV-madgraphMLM-pythia8_RunIISpring16MiniAODv2-PUSpring16Fast_80X_mcRun2_asymptotic_2016_miniAODv2_v0-v1/V08-00-09/merged_ntuple_286.root
p349
aV/hadoop/cms/store/group/snt/run2_25ns_80MiniAODv2_fastsim/SMS-T1tttt_TuneCUETP8M1_13TeV-madgraphMLM-pythia8_RunIISpring16MiniAODv2-PUSpring16Fast_80X_mcRun2_asymptotic_2016_miniAODv2_v0-v1/V08-00-09/merged_ntuple_287.root
p350
aV/hadoop/cms/store/group/snt/run2_25ns_80MiniAODv2_fastsim/SMS-T1tttt_TuneCUETP8M1_13TeV-madgraphMLM-pythia8_RunIISpring16MiniAODv2-PUSpring16Fast_80X_mcRun2_asymptotic_2016_miniAODv2_v0-v1/V08-00-09/merged_ntuple_288.root
p351
aV/hadoop/cms/store/group/snt/run2_25ns_80MiniAODv2_fastsim/SMS-T1tttt_TuneCUETP8M1_13TeV-madgraphMLM-pythia8_RunIISpring16MiniAODv2-PUSpring16Fast_80X_mcRun2_asymptotic_2016_miniAODv2_v0-v1/V08-00-09/merged_ntuple_289.root
p352
aV/hadoop/cms/store/group/snt/run2_25ns_80MiniAODv2_fastsim/SMS-T1tttt_TuneCUETP8M1_13TeV-madgraphMLM-pythia8_RunIISpring16MiniAODv2-PUSpring16Fast_80X_mcRun2_asymptotic_2016_miniAODv2_v0-v1/V08-00-09/merged_ntuple_29.root
p353
aV/hadoop/cms/store/group/snt/run2_25ns_80MiniAODv2_fastsim/SMS-T1tttt_TuneCUETP8M1_13TeV-madgraphMLM-pythia8_RunIISpring16MiniAODv2-PUSpring16Fast_80X_mcRun2_asymptotic_2016_miniAODv2_v0-v1/V08-00-09/merged_ntuple_290.root
p354
aV/hadoop/cms/store/group/snt/run2_25ns_80MiniAODv2_fastsim/SMS-T1tttt_TuneCUETP8M1_13TeV-madgraphMLM-pythia8_RunIISpring16MiniAODv2-PUSpring16Fast_80X_mcRun2_asymptotic_2016_miniAODv2_v0-v1/V08-00-09/merged_ntuple_291.root
p355
aV/hadoop/cms/store/group/snt/run2_25ns_80MiniAODv2_fastsim/SMS-T1tttt_TuneCUETP8M1_13TeV-madgraphMLM-pythia8_RunIISpring16MiniAODv2-PUSpring16Fast_80X_mcRun2_asymptotic_2016_miniAODv2_v0-v1/V08-00-09/merged_ntuple_292.root
p356
aV/hadoop/cms/store/group/snt/run2_25ns_80MiniAODv2_fastsim/SMS-T1tttt_TuneCUETP8M1_13TeV-madgraphMLM-pythia8_RunIISpring16MiniAODv2-PUSpring16Fast_80X_mcRun2_asymptotic_2016_miniAODv2_v0-v1/V08-00-09/merged_ntuple_293.root
p357
aV/hadoop/cms/store/group/snt/run2_25ns_80MiniAODv2_fastsim/SMS-T1tttt_TuneCUETP8M1_13TeV-madgraphMLM-pythia8_RunIISpring16MiniAODv2-PUSpring16Fast_80X_mcRun2_asymptotic_2016_miniAODv2_v0-v1/V08-00-09/merged_ntuple_294.root
p358
aV/hadoop/cms/store/group/snt/run2_25ns_80MiniAODv2_fastsim/SMS-T1tttt_TuneCUETP8M1_13TeV-madgraphMLM-pythia8_RunIISpring16MiniAODv2-PUSpring16Fast_80X_mcRun2_asymptotic_2016_miniAODv2_v0-v1/V08-00-09/merged_ntuple_295.root
p359
aV/hadoop/cms/store/group/snt/run2_25ns_80MiniAODv2_fastsim/SMS-T1tttt_TuneCUETP8M1_13TeV-madgraphMLM-pythia8_RunIISpring16MiniAODv2-PUSpring16Fast_80X_mcRun2_asymptotic_2016_miniAODv2_v0-v1/V08-00-09/merged_ntuple_296.root
p360
aV/hadoop/cms/store/group/snt/run2_25ns_80MiniAODv2_fastsim/SMS-T1tttt_TuneCUETP8M1_13TeV-madgraphMLM-pythia8_RunIISpring16MiniAODv2-PUSpring16Fast_80X_mcRun2_asymptotic_2016_miniAODv2_v0-v1/V08-00-09/merged_ntuple_297.root
p361
aV/hadoop/cms/store/group/snt/run2_25ns_80MiniAODv2_fastsim/SMS-T1tttt_TuneCUETP8M1_13TeV-madgraphMLM-pythia8_RunIISpring16MiniAODv2-PUSpring16Fast_80X_mcRun2_asymptotic_2016_miniAODv2_v0-v1/V08-00-09/merged_ntuple_298.root
p362
aV/hadoop/cms/store/group/snt/run2_25ns_80MiniAODv2_fastsim/SMS-T1tttt_TuneCUETP8M1_13TeV-madgraphMLM-pythia8_RunIISpring16MiniAODv2-PUSpring16Fast_80X_mcRun2_asymptotic_2016_miniAODv2_v0-v1/V08-00-09/merged_ntuple_299.root
p363
aV/hadoop/cms/store/group/snt/run2_25ns_80MiniAODv2_fastsim/SMS-T1tttt_TuneCUETP8M1_13TeV-madgraphMLM-pythia8_RunIISpring16MiniAODv2-PUSpring16Fast_80X_mcRun2_asymptotic_2016_miniAODv2_v0-v1/V08-00-09/merged_ntuple_3.root
p364
aV/hadoop/cms/store/group/snt/run2_25ns_80MiniAODv2_fastsim/SMS-T1tttt_TuneCUETP8M1_13TeV-madgraphMLM-pythia8_RunIISpring16MiniAODv2-PUSpring16Fast_80X_mcRun2_asymptotic_2016_miniAODv2_v0-v1/V08-00-09/merged_ntuple_30.root
p365
aV/hadoop/cms/store/group/snt/run2_25ns_80MiniAODv2_fastsim/SMS-T1tttt_TuneCUETP8M1_13TeV-madgraphMLM-pythia8_RunIISpring16MiniAODv2-PUSpring16Fast_80X_mcRun2_asymptotic_2016_miniAODv2_v0-v1/V08-00-09/merged_ntuple_300.root
p366
aV/hadoop/cms/store/group/snt/run2_25ns_80MiniAODv2_fastsim/SMS-T1tttt_TuneCUETP8M1_13TeV-madgraphMLM-pythia8_RunIISpring16MiniAODv2-PUSpring16Fast_80X_mcRun2_asymptotic_2016_miniAODv2_v0-v1/V08-00-09/merged_ntuple_301.root
p367
aV/hadoop/cms/store/group/snt/run2_25ns_80MiniAODv2_fastsim/SMS-T1tttt_TuneCUETP8M1_13TeV-madgraphMLM-pythia8_RunIISpring16MiniAODv2-PUSpring16Fast_80X_mcRun2_asymptotic_2016_miniAODv2_v0-v1/V08-00-09/merged_ntuple_302.root
p368
aV/hadoop/cms/store/group/snt/run2_25ns_80MiniAODv2_fastsim/SMS-T1tttt_TuneCUETP8M1_13TeV-madgraphMLM-pythia8_RunIISpring16MiniAODv2-PUSpring16Fast_80X_mcRun2_asymptotic_2016_miniAODv2_v0-v1/V08-00-09/merged_ntuple_303.root
p369
aV/hadoop/cms/store/group/snt/run2_25ns_80MiniAODv2_fastsim/SMS-T1tttt_TuneCUETP8M1_13TeV-madgraphMLM-pythia8_RunIISpring16MiniAODv2-PUSpring16Fast_80X_mcRun2_asymptotic_2016_miniAODv2_v0-v1/V08-00-09/merged_ntuple_304.root
p370
aV/hadoop/cms/store/group/snt/run2_25ns_80MiniAODv2_fastsim/SMS-T1tttt_TuneCUETP8M1_13TeV-madgraphMLM-pythia8_RunIISpring16MiniAODv2-PUSpring16Fast_80X_mcRun2_asymptotic_2016_miniAODv2_v0-v1/V08-00-09/merged_ntuple_305.root
p371
aV/hadoop/cms/store/group/snt/run2_25ns_80MiniAODv2_fastsim/SMS-T1tttt_TuneCUETP8M1_13TeV-madgraphMLM-pythia8_RunIISpring16MiniAODv2-PUSpring16Fast_80X_mcRun2_asymptotic_2016_miniAODv2_v0-v1/V08-00-09/merged_ntuple_31.root
p372
aV/hadoop/cms/store/group/snt/run2_25ns_80MiniAODv2_fastsim/SMS-T1tttt_TuneCUETP8M1_13TeV-madgraphMLM-pythia8_RunIISpring16MiniAODv2-PUSpring16Fast_80X_mcRun2_asymptotic_2016_miniAODv2_v0-v1/V08-00-09/merged_ntuple_32.root
p373
aV/hadoop/cms/store/group/snt/run2_25ns_80MiniAODv2_fastsim/SMS-T1tttt_TuneCUETP8M1_13TeV-madgraphMLM-pythia8_RunIISpring16MiniAODv2-PUSpring16Fast_80X_mcRun2_asymptotic_2016_miniAODv2_v0-v1/V08-00-09/merged_ntuple_33.root
p374
aV/hadoop/cms/store/group/snt/run2_25ns_80MiniAODv2_fastsim/SMS-T1tttt_TuneCUETP8M1_13TeV-madgraphMLM-pythia8_RunIISpring16MiniAODv2-PUSpring16Fast_80X_mcRun2_asymptotic_2016_miniAODv2_v0-v1/V08-00-09/merged_ntuple_34.root
p375
aV/hadoop/cms/store/group/snt/run2_25ns_80MiniAODv2_fastsim/SMS-T1tttt_TuneCUETP8M1_13TeV-madgraphMLM-pythia8_RunIISpring16MiniAODv2-PUSpring16Fast_80X_mcRun2_asymptotic_2016_miniAODv2_v0-v1/V08-00-09/merged_ntuple_35.root
p376
aV/hadoop/cms/store/group/snt/run2_25ns_80MiniAODv2_fastsim/SMS-T1tttt_TuneCUETP8M1_13TeV-madgraphMLM-pythia8_RunIISpring16MiniAODv2-PUSpring16Fast_80X_mcRun2_asymptotic_2016_miniAODv2_v0-v1/V08-00-09/merged_ntuple_36.root
p377
aV/hadoop/cms/store/group/snt/run2_25ns_80MiniAODv2_fastsim/SMS-T1tttt_TuneCUETP8M1_13TeV-madgraphMLM-pythia8_RunIISpring16MiniAODv2-PUSpring16Fast_80X_mcRun2_asymptotic_2016_miniAODv2_v0-v1/V08-00-09/merged_ntuple_37.root
p378
aV/hadoop/cms/store/group/snt/run2_25ns_80MiniAODv2_fastsim/SMS-T1tttt_TuneCUETP8M1_13TeV-madgraphMLM-pythia8_RunIISpring16MiniAODv2-PUSpring16Fast_80X_mcRun2_asymptotic_2016_miniAODv2_v0-v1/V08-00-09/merged_ntuple_38.root
p379
aV/hadoop/cms/store/group/snt/run2_25ns_80MiniAODv2_fastsim/SMS-T1tttt_TuneCUETP8M1_13TeV-madgraphMLM-pythia8_RunIISpring16MiniAODv2-PUSpring16Fast_80X_mcRun2_asymptotic_2016_miniAODv2_v0-v1/V08-00-09/merged_ntuple_39.root
p380
aV/hadoop/cms/store/group/snt/run2_25ns_80MiniAODv2_fastsim/SMS-T1tttt_TuneCUETP8M1_13TeV-madgraphMLM-pythia8_RunIISpring16MiniAODv2-PUSpring16Fast_80X_mcRun2_asymptotic_2016_miniAODv2_v0-v1/V08-00-09/merged_ntuple_4.root
p381
aV/hadoop/cms/store/group/snt/run2_25ns_80MiniAODv2_fastsim/SMS-T1tttt_TuneCUETP8M1_13TeV-madgraphMLM-pythia8_RunIISpring16MiniAODv2-PUSpring16Fast_80X_mcRun2_asymptotic_2016_miniAODv2_v0-v1/V08-00-09/merged_ntuple_40.root
p382
aV/hadoop/cms/store/group/snt/run2_25ns_80MiniAODv2_fastsim/SMS-T1tttt_TuneCUETP8M1_13TeV-madgraphMLM-pythia8_RunIISpring16MiniAODv2-PUSpring16Fast_80X_mcRun2_asymptotic_2016_miniAODv2_v0-v1/V08-00-09/merged_ntuple_41.root
p383
aV/hadoop/cms/store/group/snt/run2_25ns_80MiniAODv2_fastsim/SMS-T1tttt_TuneCUETP8M1_13TeV-madgraphMLM-pythia8_RunIISpring16MiniAODv2-PUSpring16Fast_80X_mcRun2_asymptotic_2016_miniAODv2_v0-v1/V08-00-09/merged_ntuple_42.root
p384
aV/hadoop/cms/store/group/snt/run2_25ns_80MiniAODv2_fastsim/SMS-T1tttt_TuneCUETP8M1_13TeV-madgraphMLM-pythia8_RunIISpring16MiniAODv2-PUSpring16Fast_80X_mcRun2_asymptotic_2016_miniAODv2_v0-v1/V08-00-09/merged_ntuple_43.root
p385
aV/hadoop/cms/store/group/snt/run2_25ns_80MiniAODv2_fastsim/SMS-T1tttt_TuneCUETP8M1_13TeV-madgraphMLM-pythia8_RunIISpring16MiniAODv2-PUSpring16Fast_80X_mcRun2_asymptotic_2016_miniAODv2_v0-v1/V08-00-09/merged_ntuple_44.root
p386
aV/hadoop/cms/store/group/snt/run2_25ns_80MiniAODv2_fastsim/SMS-T1tttt_TuneCUETP8M1_13TeV-madgraphMLM-pythia8_RunIISpring16MiniAODv2-PUSpring16Fast_80X_mcRun2_asymptotic_2016_miniAODv2_v0-v1/V08-00-09/merged_ntuple_45.root
p387
aV/hadoop/cms/store/group/snt/run2_25ns_80MiniAODv2_fastsim/SMS-T1tttt_TuneCUETP8M1_13TeV-madgraphMLM-pythia8_RunIISpring16MiniAODv2-PUSpring16Fast_80X_mcRun2_asymptotic_2016_miniAODv2_v0-v1/V08-00-09/merged_ntuple_46.root
p388
aV/hadoop/cms/store/group/snt/run2_25ns_80MiniAODv2_fastsim/SMS-T1tttt_TuneCUETP8M1_13TeV-madgraphMLM-pythia8_RunIISpring16MiniAODv2-PUSpring16Fast_80X_mcRun2_asymptotic_2016_miniAODv2_v0-v1/V08-00-09/merged_ntuple_47.root
p389
aV/hadoop/cms/store/group/snt/run2_25ns_80MiniAODv2_fastsim/SMS-T1tttt_TuneCUETP8M1_13TeV-madgraphMLM-pythia8_RunIISpring16MiniAODv2-PUSpring16Fast_80X_mcRun2_asymptotic_2016_miniAODv2_v0-v1/V08-00-09/merged_ntuple_48.root
p390
aV/hadoop/cms/store/group/snt/run2_25ns_80MiniAODv2_fastsim/SMS-T1tttt_TuneCUETP8M1_13TeV-madgraphMLM-pythia8_RunIISpring16MiniAODv2-PUSpring16Fast_80X_mcRun2_asymptotic_2016_miniAODv2_v0-v1/V08-00-09/merged_ntuple_49.root
p391
aV/hadoop/cms/store/group/snt/run2_25ns_80MiniAODv2_fastsim/SMS-T1tttt_TuneCUETP8M1_13TeV-madgraphMLM-pythia8_RunIISpring16MiniAODv2-PUSpring16Fast_80X_mcRun2_asymptotic_2016_miniAODv2_v0-v1/V08-00-09/merged_ntuple_5.root
p392
aV/hadoop/cms/store/group/snt/run2_25ns_80MiniAODv2_fastsim/SMS-T1tttt_TuneCUETP8M1_13TeV-madgraphMLM-pythia8_RunIISpring16MiniAODv2-PUSpring16Fast_80X_mcRun2_asymptotic_2016_miniAODv2_v0-v1/V08-00-09/merged_ntuple_50.root
p393
aV/hadoop/cms/store/group/snt/run2_25ns_80MiniAODv2_fastsim/SMS-T1tttt_TuneCUETP8M1_13TeV-madgraphMLM-pythia8_RunIISpring16MiniAODv2-PUSpring16Fast_80X_mcRun2_asymptotic_2016_miniAODv2_v0-v1/V08-00-09/merged_ntuple_51.root
p394
aV/hadoop/cms/store/group/snt/run2_25ns_80MiniAODv2_fastsim/SMS-T1tttt_TuneCUETP8M1_13TeV-madgraphMLM-pythia8_RunIISpring16MiniAODv2-PUSpring16Fast_80X_mcRun2_asymptotic_2016_miniAODv2_v0-v1/V08-00-09/merged_ntuple_52.root
p395
aV/hadoop/cms/store/group/snt/run2_25ns_80MiniAODv2_fastsim/SMS-T1tttt_TuneCUETP8M1_13TeV-madgraphMLM-pythia8_RunIISpring16MiniAODv2-PUSpring16Fast_80X_mcRun2_asymptotic_2016_miniAODv2_v0-v1/V08-00-09/merged_ntuple_53.root
p396
aV/hadoop/cms/store/group/snt/run2_25ns_80MiniAODv2_fastsim/SMS-T1tttt_TuneCUETP8M1_13TeV-madgraphMLM-pythia8_RunIISpring16MiniAODv2-PUSpring16Fast_80X_mcRun2_asymptotic_2016_miniAODv2_v0-v1/V08-00-09/merged_ntuple_54.root
p397
aV/hadoop/cms/store/group/snt/run2_25ns_80MiniAODv2_fastsim/SMS-T1tttt_TuneCUETP8M1_13TeV-madgraphMLM-pythia8_RunIISpring16MiniAODv2-PUSpring16Fast_80X_mcRun2_asymptotic_2016_miniAODv2_v0-v1/V08-00-09/merged_ntuple_55.root
p398
aV/hadoop/cms/store/group/snt/run2_25ns_80MiniAODv2_fastsim/SMS-T1tttt_TuneCUETP8M1_13TeV-madgraphMLM-pythia8_RunIISpring16MiniAODv2-PUSpring16Fast_80X_mcRun2_asymptotic_2016_miniAODv2_v0-v1/V08-00-09/merged_ntuple_56.root
p399
aV/hadoop/cms/store/group/snt/run2_25ns_80MiniAODv2_fastsim/SMS-T1tttt_TuneCUETP8M1_13TeV-madgraphMLM-pythia8_RunIISpring16MiniAODv2-PUSpring16Fast_80X_mcRun2_asymptotic_2016_miniAODv2_v0-v1/V08-00-09/merged_ntuple_57.root
p400
aV/hadoop/cms/store/group/snt/run2_25ns_80MiniAODv2_fastsim/SMS-T1tttt_TuneCUETP8M1_13TeV-madgraphMLM-pythia8_RunIISpring16MiniAODv2-PUSpring16Fast_80X_mcRun2_asymptotic_2016_miniAODv2_v0-v1/V08-00-09/merged_ntuple_58.root
p401
aV/hadoop/cms/store/group/snt/run2_25ns_80MiniAODv2_fastsim/SMS-T1tttt_TuneCUETP8M1_13TeV-madgraphMLM-pythia8_RunIISpring16MiniAODv2-PUSpring16Fast_80X_mcRun2_asymptotic_2016_miniAODv2_v0-v1/V08-00-09/merged_ntuple_59.root
p402
aV/hadoop/cms/store/group/snt/run2_25ns_80MiniAODv2_fastsim/SMS-T1tttt_TuneCUETP8M1_13TeV-madgraphMLM-pythia8_RunIISpring16MiniAODv2-PUSpring16Fast_80X_mcRun2_asymptotic_2016_miniAODv2_v0-v1/V08-00-09/merged_ntuple_6.root
p403
aV/hadoop/cms/store/group/snt/run2_25ns_80MiniAODv2_fastsim/SMS-T1tttt_TuneCUETP8M1_13TeV-madgraphMLM-pythia8_RunIISpring16MiniAODv2-PUSpring16Fast_80X_mcRun2_asymptotic_2016_miniAODv2_v0-v1/V08-00-09/merged_ntuple_60.root
p404
aV/hadoop/cms/store/group/snt/run2_25ns_80MiniAODv2_fastsim/SMS-T1tttt_TuneCUETP8M1_13TeV-madgraphMLM-pythia8_RunIISpring16MiniAODv2-PUSpring16Fast_80X_mcRun2_asymptotic_2016_miniAODv2_v0-v1/V08-00-09/merged_ntuple_61.root
p405
aV/hadoop/cms/store/group/snt/run2_25ns_80MiniAODv2_fastsim/SMS-T1tttt_TuneCUETP8M1_13TeV-madgraphMLM-pythia8_RunIISpring16MiniAODv2-PUSpring16Fast_80X_mcRun2_asymptotic_2016_miniAODv2_v0-v1/V08-00-09/merged_ntuple_62.root
p406
aV/hadoop/cms/store/group/snt/run2_25ns_80MiniAODv2_fastsim/SMS-T1tttt_TuneCUETP8M1_13TeV-madgraphMLM-pythia8_RunIISpring16MiniAODv2-PUSpring16Fast_80X_mcRun2_asymptotic_2016_miniAODv2_v0-v1/V08-00-09/merged_ntuple_63.root
p407
aV/hadoop/cms/store/group/snt/run2_25ns_80MiniAODv2_fastsim/SMS-T1tttt_TuneCUETP8M1_13TeV-madgraphMLM-pythia8_RunIISpring16MiniAODv2-PUSpring16Fast_80X_mcRun2_asymptotic_2016_miniAODv2_v0-v1/V08-00-09/merged_ntuple_64.root
p408
aV/hadoop/cms/store/group/snt/run2_25ns_80MiniAODv2_fastsim/SMS-T1tttt_TuneCUETP8M1_13TeV-madgraphMLM-pythia8_RunIISpring16MiniAODv2-PUSpring16Fast_80X_mcRun2_asymptotic_2016_miniAODv2_v0-v1/V08-00-09/merged_ntuple_65.root
p409
aV/hadoop/cms/store/group/snt/run2_25ns_80MiniAODv2_fastsim/SMS-T1tttt_TuneCUETP8M1_13TeV-madgraphMLM-pythia8_RunIISpring16MiniAODv2-PUSpring16Fast_80X_mcRun2_asymptotic_2016_miniAODv2_v0-v1/V08-00-09/merged_ntuple_66.root
p410
aV/hadoop/cms/store/group/snt/run2_25ns_80MiniAODv2_fastsim/SMS-T1tttt_TuneCUETP8M1_13TeV-madgraphMLM-pythia8_RunIISpring16MiniAODv2-PUSpring16Fast_80X_mcRun2_asymptotic_2016_miniAODv2_v0-v1/V08-00-09/merged_ntuple_67.root
p411
aV/hadoop/cms/store/group/snt/run2_25ns_80MiniAODv2_fastsim/SMS-T1tttt_TuneCUETP8M1_13TeV-madgraphMLM-pythia8_RunIISpring16MiniAODv2-PUSpring16Fast_80X_mcRun2_asymptotic_2016_miniAODv2_v0-v1/V08-00-09/merged_ntuple_68.root
p412
aV/hadoop/cms/store/group/snt/run2_25ns_80MiniAODv2_fastsim/SMS-T1tttt_TuneCUETP8M1_13TeV-madgraphMLM-pythia8_RunIISpring16MiniAODv2-PUSpring16Fast_80X_mcRun2_asymptotic_2016_miniAODv2_v0-v1/V08-00-09/merged_ntuple_69.root
p413
aV/hadoop/cms/store/group/snt/run2_25ns_80MiniAODv2_fastsim/SMS-T1tttt_TuneCUETP8M1_13TeV-madgraphMLM-pythia8_RunIISpring16MiniAODv2-PUSpring16Fast_80X_mcRun2_asymptotic_2016_miniAODv2_v0-v1/V08-00-09/merged_ntuple_7.root
p414
aV/hadoop/cms/store/group/snt/run2_25ns_80MiniAODv2_fastsim/SMS-T1tttt_TuneCUETP8M1_13TeV-madgraphMLM-pythia8_RunIISpring16MiniAODv2-PUSpring16Fast_80X_mcRun2_asymptotic_2016_miniAODv2_v0-v1/V08-00-09/merged_ntuple_70.root
p415
aV/hadoop/cms/store/group/snt/run2_25ns_80MiniAODv2_fastsim/SMS-T1tttt_TuneCUETP8M1_13TeV-madgraphMLM-pythia8_RunIISpring16MiniAODv2-PUSpring16Fast_80X_mcRun2_asymptotic_2016_miniAODv2_v0-v1/V08-00-09/merged_ntuple_71.root
p416
aV/hadoop/cms/store/group/snt/run2_25ns_80MiniAODv2_fastsim/SMS-T1tttt_TuneCUETP8M1_13TeV-madgraphMLM-pythia8_RunIISpring16MiniAODv2-PUSpring16Fast_80X_mcRun2_asymptotic_2016_miniAODv2_v0-v1/V08-00-09/merged_ntuple_72.root
p417
aV/hadoop/cms/store/group/snt/run2_25ns_80MiniAODv2_fastsim/SMS-T1tttt_TuneCUETP8M1_13TeV-madgraphMLM-pythia8_RunIISpring16MiniAODv2-PUSpring16Fast_80X_mcRun2_asymptotic_2016_miniAODv2_v0-v1/V08-00-09/merged_ntuple_73.root
p418
aV/hadoop/cms/store/group/snt/run2_25ns_80MiniAODv2_fastsim/SMS-T1tttt_TuneCUETP8M1_13TeV-madgraphMLM-pythia8_RunIISpring16MiniAODv2-PUSpring16Fast_80X_mcRun2_asymptotic_2016_miniAODv2_v0-v1/V08-00-09/merged_ntuple_74.root
p419
aV/hadoop/cms/store/group/snt/run2_25ns_80MiniAODv2_fastsim/SMS-T1tttt_TuneCUETP8M1_13TeV-madgraphMLM-pythia8_RunIISpring16MiniAODv2-PUSpring16Fast_80X_mcRun2_asymptotic_2016_miniAODv2_v0-v1/V08-00-09/merged_ntuple_75.root
p420
aV/hadoop/cms/store/group/snt/run2_25ns_80MiniAODv2_fastsim/SMS-T1tttt_TuneCUETP8M1_13TeV-madgraphMLM-pythia8_RunIISpring16MiniAODv2-PUSpring16Fast_80X_mcRun2_asymptotic_2016_miniAODv2_v0-v1/V08-00-09/merged_ntuple_76.root
p421
aV/hadoop/cms/store/group/snt/run2_25ns_80MiniAODv2_fastsim/SMS-T1tttt_TuneCUETP8M1_13TeV-madgraphMLM-pythia8_RunIISpring16MiniAODv2-PUSpring16Fast_80X_mcRun2_asymptotic_2016_miniAODv2_v0-v1/V08-00-09/merged_ntuple_77.root
p422
aV/hadoop/cms/store/group/snt/run2_25ns_80MiniAODv2_fastsim/SMS-T1tttt_TuneCUETP8M1_13TeV-madgraphMLM-pythia8_RunIISpring16MiniAODv2-PUSpring16Fast_80X_mcRun2_asymptotic_2016_miniAODv2_v0-v1/V08-00-09/merged_ntuple_78.root
p423
aV/hadoop/cms/store/group/snt/run2_25ns_80MiniAODv2_fastsim/SMS-T1tttt_TuneCUETP8M1_13TeV-madgraphMLM-pythia8_RunIISpring16MiniAODv2-PUSpring16Fast_80X_mcRun2_asymptotic_2016_miniAODv2_v0-v1/V08-00-09/merged_ntuple_79.root
p424
aV/hadoop/cms/store/group/snt/run2_25ns_80MiniAODv2_fastsim/SMS-T1tttt_TuneCUETP8M1_13TeV-madgraphMLM-pythia8_RunIISpring16MiniAODv2-PUSpring16Fast_80X_mcRun2_asymptotic_2016_miniAODv2_v0-v1/V08-00-09/merged_ntuple_8.root
p425
aV/hadoop/cms/store/group/snt/run2_25ns_80MiniAODv2_fastsim/SMS-T1tttt_TuneCUETP8M1_13TeV-madgraphMLM-pythia8_RunIISpring16MiniAODv2-PUSpring16Fast_80X_mcRun2_asymptotic_2016_miniAODv2_v0-v1/V08-00-09/merged_ntuple_80.root
p426
aV/hadoop/cms/store/group/snt/run2_25ns_80MiniAODv2_fastsim/SMS-T1tttt_TuneCUETP8M1_13TeV-madgraphMLM-pythia8_RunIISpring16MiniAODv2-PUSpring16Fast_80X_mcRun2_asymptotic_2016_miniAODv2_v0-v1/V08-00-09/merged_ntuple_81.root
p427
aV/hadoop/cms/store/group/snt/run2_25ns_80MiniAODv2_fastsim/SMS-T1tttt_TuneCUETP8M1_13TeV-madgraphMLM-pythia8_RunIISpring16MiniAODv2-PUSpring16Fast_80X_mcRun2_asymptotic_2016_miniAODv2_v0-v1/V08-00-09/merged_ntuple_82.root
p428
aV/hadoop/cms/store/group/snt/run2_25ns_80MiniAODv2_fastsim/SMS-T1tttt_TuneCUETP8M1_13TeV-madgraphMLM-pythia8_RunIISpring16MiniAODv2-PUSpring16Fast_80X_mcRun2_asymptotic_2016_miniAODv2_v0-v1/V08-00-09/merged_ntuple_83.root
p429
aV/hadoop/cms/store/group/snt/run2_25ns_80MiniAODv2_fastsim/SMS-T1tttt_TuneCUETP8M1_13TeV-madgraphMLM-pythia8_RunIISpring16MiniAODv2-PUSpring16Fast_80X_mcRun2_asymptotic_2016_miniAODv2_v0-v1/V08-00-09/merged_ntuple_84.root
p430
aV/hadoop/cms/store/group/snt/run2_25ns_80MiniAODv2_fastsim/SMS-T1tttt_TuneCUETP8M1_13TeV-madgraphMLM-pythia8_RunIISpring16MiniAODv2-PUSpring16Fast_80X_mcRun2_asymptotic_2016_miniAODv2_v0-v1/V08-00-09/merged_ntuple_85.root
p431
aV/hadoop/cms/store/group/snt/run2_25ns_80MiniAODv2_fastsim/SMS-T1tttt_TuneCUETP8M1_13TeV-madgraphMLM-pythia8_RunIISpring16MiniAODv2-PUSpring16Fast_80X_mcRun2_asymptotic_2016_miniAODv2_v0-v1/V08-00-09/merged_ntuple_86.root
p432
aV/hadoop/cms/store/group/snt/run2_25ns_80MiniAODv2_fastsim/SMS-T1tttt_TuneCUETP8M1_13TeV-madgraphMLM-pythia8_RunIISpring16MiniAODv2-PUSpring16Fast_80X_mcRun2_asymptotic_2016_miniAODv2_v0-v1/V08-00-09/merged_ntuple_87.root
p433
aV/hadoop/cms/store/group/snt/run2_25ns_80MiniAODv2_fastsim/SMS-T1tttt_TuneCUETP8M1_13TeV-madgraphMLM-pythia8_RunIISpring16MiniAODv2-PUSpring16Fast_80X_mcRun2_asymptotic_2016_miniAODv2_v0-v1/V08-00-09/merged_ntuple_88.root
p434
aV/hadoop/cms/store/group/snt/run2_25ns_80MiniAODv2_fastsim/SMS-T1tttt_TuneCUETP8M1_13TeV-madgraphMLM-pythia8_RunIISpring16MiniAODv2-PUSpring16Fast_80X_mcRun2_asymptotic_2016_miniAODv2_v0-v1/V08-00-09/merged_ntuple_89.root
p435
aV/hadoop/cms/store/group/snt/run2_25ns_80MiniAODv2_fastsim/SMS-T1tttt_TuneCUETP8M1_13TeV-madgraphMLM-pythia8_RunIISpring16MiniAODv2-PUSpring16Fast_80X_mcRun2_asymptotic_2016_miniAODv2_v0-v1/V08-00-09/merged_ntuple_9.root
p436
aV/hadoop/cms/store/group/snt/run2_25ns_80MiniAODv2_fastsim/SMS-T1tttt_TuneCUETP8M1_13TeV-madgraphMLM-pythia8_RunIISpring16MiniAODv2-PUSpring16Fast_80X_mcRun2_asymptotic_2016_miniAODv2_v0-v1/V08-00-09/merged_ntuple_90.root
p437
aV/hadoop/cms/store/group/snt/run2_25ns_80MiniAODv2_fastsim/SMS-T1tttt_TuneCUETP8M1_13TeV-madgraphMLM-pythia8_RunIISpring16MiniAODv2-PUSpring16Fast_80X_mcRun2_asymptotic_2016_miniAODv2_v0-v1/V08-00-09/merged_ntuple_91.root
p438
aV/hadoop/cms/store/group/snt/run2_25ns_80MiniAODv2_fastsim/SMS-T1tttt_TuneCUETP8M1_13TeV-madgraphMLM-pythia8_RunIISpring16MiniAODv2-PUSpring16Fast_80X_mcRun2_asymptotic_2016_miniAODv2_v0-v1/V08-00-09/merged_ntuple_92.root
p439
aV/hadoop/cms/store/group/snt/run2_25ns_80MiniAODv2_fastsim/SMS-T1tttt_TuneCUETP8M1_13TeV-madgraphMLM-pythia8_RunIISpring16MiniAODv2-PUSpring16Fast_80X_mcRun2_asymptotic_2016_miniAODv2_v0-v1/V08-00-09/merged_ntuple_93.root
p440
aV/hadoop/cms/store/group/snt/run2_25ns_80MiniAODv2_fastsim/SMS-T1tttt_TuneCUETP8M1_13TeV-madgraphMLM-pythia8_RunIISpring16MiniAODv2-PUSpring16Fast_80X_mcRun2_asymptotic_2016_miniAODv2_v0-v1/V08-00-09/merged_ntuple_94.root
p441
aV/hadoop/cms/store/group/snt/run2_25ns_80MiniAODv2_fastsim/SMS-T1tttt_TuneCUETP8M1_13TeV-madgraphMLM-pythia8_RunIISpring16MiniAODv2-PUSpring16Fast_80X_mcRun2_asymptotic_2016_miniAODv2_v0-v1/V08-00-09/merged_ntuple_95.root
p442
aV/hadoop/cms/store/group/snt/run2_25ns_80MiniAODv2_fastsim/SMS-T1tttt_TuneCUETP8M1_13TeV-madgraphMLM-pythia8_RunIISpring16MiniAODv2-PUSpring16Fast_80X_mcRun2_asymptotic_2016_miniAODv2_v0-v1/V08-00-09/merged_ntuple_96.root
p443
aV/hadoop/cms/store/group/snt/run2_25ns_80MiniAODv2_fastsim/SMS-T1tttt_TuneCUETP8M1_13TeV-madgraphMLM-pythia8_RunIISpring16MiniAODv2-PUSpring16Fast_80X_mcRun2_asymptotic_2016_miniAODv2_v0-v1/V08-00-09/merged_ntuple_97.root
p444
aV/hadoop/cms/store/group/snt/run2_25ns_80MiniAODv2_fastsim/SMS-T1tttt_TuneCUETP8M1_13TeV-madgraphMLM-pythia8_RunIISpring16MiniAODv2-PUSpring16Fast_80X_mcRun2_asymptotic_2016_miniAODv2_v0-v1/V08-00-09/merged_ntuple_98.root
p445
aV/hadoop/cms/store/group/snt/run2_25ns_80MiniAODv2_fastsim/SMS-T1tttt_TuneCUETP8M1_13TeV-madgraphMLM-pythia8_RunIISpring16MiniAODv2-PUSpring16Fast_80X_mcRun2_asymptotic_2016_miniAODv2_v0-v1/V08-00-09/merged_ntuple_99.root
p446
assS'nevents_unmerged'
p447
I0
sg128
g129
sS'postprocessing'
p448
(dp449
g120
I0
sg106
I37
sg83
I37
sg135
I0
ssS'nevents_merged'
p450
I0
sS'nevents_DAS'
p451
I0
ssS'misc'
p452
(dp453
S'rootfiles'
p454
(lp455
sS'crab_config'
p456
NsS'last_saved'
p457
I1503478645
sS'handled_more_than_1k'
p458
I00
sS'can_skip_tail'
p459
I00
sS'email_when_done'
p460
I00
sS'update_dis_when_done'
p461
I00
sS'pfx_babies'
p462
S'babies'
p463
sS'logfiles'
p464
(lp465
sS'pfx_pset'
p466
g7
sS'pfx_crab'
p467
g60
ss.