(dp0
S'sample'
p1
(dp2
S'gtag'
p3
NsS'isdata'
p4
I00
sS'dataset'
p5
S'/WJetsToLNu_TuneCUETP8M1_13TeV-madgraphMLM-pythia8/RunIISummer16MiniAODv2-PUMoriond17_80X_mcRun2_asymptotic_2016_TrancheIV_v6-v1/MINIAODSIM'
p6
sS'pset'
p7
S''
p8
sS'finaldir'
p9
g8
sS'ijob_to_nevents'
p10
(dp11
sS'basedir'
p12
S'/home/users/dpgilber/MT2AnalysisEdit/babymaker/batchsubmit/'
p13
sS'kfact'
p14
NsS'imerged_to_ijob'
p15
(dp16
S'output'
p17
(dp18
I1
(lp19
I1
aI10
aI100
aI101
aI102
aI103
aI104
aI105
aI106
aI107
aI108
aI109
aI11
aI110
aI111
aI112
aI113
aI114
aI115
aI116
aI117
asI2
(lp20
I118
aI119
aI12
aI120
aI121
aI122
aI123
aI124
aI125
aI126
aI127
aI128
aI129
aI13
aI130
aI131
aI132
aI133
aI134
aI135
aI136
aI137
asI3
(lp21
I138
aI139
aI14
aI140
aI141
aI142
aI143
aI144
aI145
aI146
aI147
aI148
aI149
aI15
aI150
aI151
aI152
aI153
aI154
aI155
aI156
aI157
aI158
asI4
(lp22
I159
aI16
aI160
aI17
aI18
aI19
aI2
aI20
aI21
aI22
aI23
aI24
aI25
aI26
aI27
aI28
aI29
aI3
aI30
aI31
aI32
aI33
aI34
asI5
(lp23
I35
aI36
aI37
aI38
aI39
aI4
aI40
aI41
aI42
aI43
aI44
aI45
aI46
aI47
aI48
aI49
aI5
aI50
aI51
aI52
aI53
aI54
asI6
(lp24
I55
aI56
aI57
aI58
aI59
aI6
aI60
aI61
aI62
aI63
aI64
aI65
aI66
aI67
aI68
aI69
aI7
aI70
aI71
aI72
aI73
aI74
asI7
(lp25
I75
aI76
aI77
aI78
aI79
aI8
aI80
aI81
aI82
aI83
aI84
aI85
aI86
aI87
aI88
aI89
aI9
aI90
aI91
aI92
aI93
aI94
asI8
(lp26
I95
aI96
aI97
aI98
aI99
assS'skim'
p27
(dp28
I1
(lp29
I1
aI10
aI100
aI101
aI102
aI103
aI104
aI105
aI106
aI107
aI108
aI109
aI11
aI110
aI111
aI112
aI113
aI114
aI115
aI116
aI117
aI118
aI119
aI12
aI120
aI121
aI122
aI123
aI124
aI125
aI126
aI127
aI128
aI129
aI13
aI130
aI131
aI132
aI133
aI134
aI135
aI136
aI137
aI138
aI139
aI14
aI140
aI141
aI142
aI143
aI144
aI145
aI146
aI147
aI148
aI149
aI15
aI150
aI151
aI152
aI153
aI154
aI155
aI156
aI157
aI158
aI159
aI16
aI160
aI17
aI18
aI19
aI2
aI20
aI21
aI22
aI23
aI24
aI25
aI26
aI27
aI28
aI29
aI3
aI30
aI31
aI32
aI33
aI34
aI35
aI36
aI37
aI38
aI39
aI4
aI40
aI41
aI42
aI43
aI44
aI45
aI46
aI47
aI48
aI49
aI5
aI50
aI51
aI52
aI53
aI54
aI55
aI56
aI57
aI58
aI59
aI6
aI60
aI61
aI62
aI63
aI64
aI65
aI66
aI67
aI68
aI69
aI7
aI70
aI71
aI72
aI73
aI74
aI75
aI76
aI77
aI78
aI79
aI8
aI80
aI81
aI82
aI83
aI84
aI85
aI86
aI87
aI88
aI89
aI9
aI90
aI91
aI92
aI93
aI94
aI95
aI96
aI97
aI98
aI99
assS'skim_rphi'
p30
(dp31
I1
(lp32
I1
aI10
aI100
aI101
aI102
aI103
aI104
aI105
aI106
aI107
aI108
aI109
aI11
aI110
aI111
aI112
aI113
aI114
aI115
aI116
aI117
aI118
aI119
aI12
aI120
aI121
aI122
aI123
aI124
aI125
aI126
aI127
aI128
aI129
aI13
aI130
aI131
aI132
aI133
aI134
aI135
aI136
aI137
aI138
aI139
aI14
aI140
aI141
aI142
aI143
aI144
aI145
aI146
aI147
aI148
aI149
aI15
aI150
aI151
aI152
aI153
aI154
aI155
aI156
aI157
aI158
aI159
aI16
aI160
aI17
aI18
aI19
aI2
aI20
aI21
aI22
aI23
aI24
aI25
aI26
aI27
aI28
aI29
aI3
aI30
aI31
aI32
aI33
aI34
aI35
aI36
aI37
aI38
aI39
aI4
aI40
aI41
aI42
aI43
aI44
aI45
aI46
aI47
aI48
aI49
aI5
aI50
aI51
aI52
aI53
aI54
aI55
aI56
aI57
aI58
aI59
aI6
aI60
aI61
aI62
aI63
aI64
aI65
aI66
aI67
aI68
aI69
aI7
aI70
aI71
aI72
aI73
aI74
aI75
aI76
aI77
aI78
aI79
aI8
aI80
aI81
aI82
aI83
aI84
aI85
aI86
aI87
aI88
aI89
aI9
aI90
aI91
aI92
aI93
aI94
aI95
aI96
aI97
aI98
aI99
asssS'crab'
p33
(dp34
S'resubmissions'
p35
I0
sS'datetime'
p36
NsS'jobs_left'
p37
(lp38
sS'requestname'
p39
S'WJetsToLNu_TuneCUETP8M1_13TeV-madgraphMLM-pythia8_RunIISummer16MiniAODv2-PUMoriond17_80X_mcRun2_asy'
p40
sS'taskdir'
p41
S'babies/babies_WJetsToLNu_TuneCUETP8M1_13TeV-madgraphMLM-pythia8_RunIISummer16MiniAODv2-PUMoriond17_80X_mcRun2_asy_AllPF'
p42
sS'outputdir'
p43
NsS'jobs_left_tail'
p44
(lp45
ssS'shortname'
p46
S'WJetsToLNu_TuneCUETP8M1_13TeV-madgraphMLM-pythia8_RunIISummer16MiniAODv2-PUMoriond17_80X_mcRun2_asymptotic_2016_TrancheIV_v6-v1'
p47
sS'xsec'
p48
NsS'type'
p49
S'BABY'
p50
sS'checks'
p51
(dp52
sS'sparms'
p53
(lp54
sS'status'
p55
S'done'
p56
sS'ijob_to_miniaod'
p57
(dp58
sS'cms3tag'
p59
VCMS3_V08-00-16
p60
sS'specialdir'
p61
g8
sS'user'
p62
S'dpgilber'
p63
sS'efact'
p64
NsS'baby'
p65
(dp66
S'condor_done'
p67
I160
sS'outputdir_pattern'
p68
S'/hadoop/cms/store/user/dpgilber/AutoTwopler_babies/${ANALYSIS}_${BABY_TAG}/${SHORTNAME}/'
p69
sS'user_executable'
p70
S'/home/users/dpgilber/MT2AnalysisEdit/babymaker/batchsubmit/job_input/wrapper_auto.sh'
p71
sg5
g6
sS'scramarch'
p72
S'slc6_amd64_gcc530'
p73
sS'sweepRoot_script'
p74
S'/home/users/dpgilber/MT2AnalysisEdit/babymaker/batchsubmit//babies/sweepRoot.sh'
p75
sS'executable_script'
p76
S'/home/users/dpgilber/MT2AnalysisEdit/babymaker/batchsubmit//babies/baby_ducks.sh'
p77
sg9
S'/hadoop/cms/store/user/dpgilber/AutoTwopler_babies/MT2_AllPF/WJetsToLNu_TuneCUETP8M1_13TeV-madgraphMLM-pythia8_RunIISummer16MiniAODv2-PUMoriond17_80X_mcRun2_asymptotic_2016_TrancheIV_v6-v1/'
p78
sS'total'
p79
I160
sS'nevents'
p80
I-1
sS'output_names_nosplit'
p81
S'output.root,skim.root,skim_rphi.root'
p82
sS'imerged'
p83
(lp84
I1
aI10
aI100
aI101
aI102
aI103
aI104
aI105
aI106
aI107
aI108
aI109
aI11
aI110
aI111
aI112
aI113
aI114
aI115
aI116
aI117
aI118
aI119
aI12
aI120
aI121
aI122
aI123
aI124
aI125
aI126
aI127
aI128
aI129
aI13
aI130
aI131
aI132
aI133
aI134
aI135
aI136
aI137
aI138
aI139
aI14
aI140
aI141
aI142
aI143
aI144
aI145
aI146
aI147
aI148
aI149
aI15
aI150
aI151
aI152
aI153
aI154
aI155
aI156
aI157
aI158
aI159
aI16
aI160
aI17
aI18
aI19
aI2
aI20
aI21
aI22
aI23
aI24
aI25
aI26
aI27
aI28
aI29
aI3
aI30
aI31
aI32
aI33
aI34
aI35
aI36
aI37
aI38
aI39
aI4
aI40
aI41
aI42
aI43
aI44
aI45
aI46
aI47
aI48
aI49
aI5
aI50
aI51
aI52
aI53
aI54
aI55
aI56
aI57
aI58
aI59
aI6
aI60
aI61
aI62
aI63
aI64
aI65
aI66
aI67
aI68
aI69
aI7
aI70
aI71
aI72
aI73
aI74
aI75
aI76
aI77
aI78
aI79
aI8
aI80
aI81
aI82
aI83
aI84
aI85
aI86
aI87
aI88
aI89
aI9
aI90
aI91
aI92
aI93
aI94
aI95
aI96
aI97
aI98
aI99
asS'sweepRooted'
p85
I160
sS'exe_args'
p86
(lp87
g8
asS'merged_dir'
p88
S'/hadoop/cms/store/user/dpgilber/AutoTwopler_babies/merged//MT2/AllPF/'
p89
sS'user_package'
p90
S'/home/users/dpgilber/MT2AnalysisEdit/babymaker/batchsubmit/job_input/package.tar.gz'
p91
sS'exe_args_nosplit'
p92
g8
sS'running'
p93
I0
sS'output_names'
p94
(lp95
S'output.root'
p96
aS'skim.root'
p97
aS'skim_rphi.root'
p98
asS'package'
p99
S'/home/users/dpgilber/MT2AnalysisEdit/babymaker/batchsubmit//babies/package.tar.gz'
p100
sS'cmsswver'
p101
S'CMSSW_8_0_21'
p102
sS'have_set_inputs'
p103
I01
sS'analysis'
p104
S'MT2'
p105
sS'merging_script'
p106
S'/home/users/dpgilber/MT2AnalysisEdit/babymaker/batchsubmit//babies/merging_script.sh'
p107
sS'idle'
p108
I0
sS'baby_tag'
p109
S'AllPF'
p110
sS'imerged_swept'
p111
(lp112
I160
aI128
aI3
aI132
aI135
aI138
aI12
aI142
aI143
aI144
aI145
aI147
aI20
aI150
aI151
aI152
aI156
aI159
aI37
aI44
aI45
aI46
aI50
aI115
aI55
aI31
aI61
aI64
aI82
aI84
aI14
aI24
aI90
aI15
aI92
aI97
aI100
aI102
aI17
aI108
aI109
aI114
aI19
aI117
aI119
aI122
aI123
aI126
aI16
aI1
aI2
aI4
aI5
aI6
aI7
aI9
aI10
aI11
aI13
aI18
aI21
aI22
aI23
aI26
aI27
aI28
aI29
aI30
aI33
aI36
aI38
aI40
aI41
aI43
aI47
aI48
aI49
aI51
aI52
aI53
aI56
aI57
aI58
aI60
aI62
aI66
aI67
aI68
aI69
aI70
aI72
aI73
aI74
aI75
aI76
aI77
aI79
aI80
aI83
aI85
aI87
aI88
aI91
aI93
aI95
aI98
aI101
aI103
aI104
aI105
aI106
aI107
aI110
aI111
aI112
aI116
aI118
aI120
aI121
aI124
aI125
aI127
aI129
aI130
aI131
aI133
aI134
aI136
aI137
aI140
aI146
aI148
aI153
aI154
aI155
aI157
aI158
aI8
aI139
aI141
aI149
aI25
aI32
aI34
aI35
aI39
aI54
aI59
aI63
aI65
aI71
aI78
aI81
aI86
aI89
aI94
aI96
aI99
aI113
aI42
asS'input_filenames'
p113
(lp114
V/hadoop/cms/store/group/snt/run2_moriond17/WJetsToLNu_TuneCUETP8M1_13TeV-madgraphMLM-pythia8_RunIISummer16MiniAODv2-PUMoriond17_80X_mcRun2_asymptotic_2016_TrancheIV_v6-v1/V08-00-16/merged_ntuple_1.root
p115
aV/hadoop/cms/store/group/snt/run2_moriond17/WJetsToLNu_TuneCUETP8M1_13TeV-madgraphMLM-pythia8_RunIISummer16MiniAODv2-PUMoriond17_80X_mcRun2_asymptotic_2016_TrancheIV_v6-v1/V08-00-16/merged_ntuple_10.root
p116
aV/hadoop/cms/store/group/snt/run2_moriond17/WJetsToLNu_TuneCUETP8M1_13TeV-madgraphMLM-pythia8_RunIISummer16MiniAODv2-PUMoriond17_80X_mcRun2_asymptotic_2016_TrancheIV_v6-v1/V08-00-16/merged_ntuple_100.root
p117
aV/hadoop/cms/store/group/snt/run2_moriond17/WJetsToLNu_TuneCUETP8M1_13TeV-madgraphMLM-pythia8_RunIISummer16MiniAODv2-PUMoriond17_80X_mcRun2_asymptotic_2016_TrancheIV_v6-v1/V08-00-16/merged_ntuple_101.root
p118
aV/hadoop/cms/store/group/snt/run2_moriond17/WJetsToLNu_TuneCUETP8M1_13TeV-madgraphMLM-pythia8_RunIISummer16MiniAODv2-PUMoriond17_80X_mcRun2_asymptotic_2016_TrancheIV_v6-v1/V08-00-16/merged_ntuple_102.root
p119
aV/hadoop/cms/store/group/snt/run2_moriond17/WJetsToLNu_TuneCUETP8M1_13TeV-madgraphMLM-pythia8_RunIISummer16MiniAODv2-PUMoriond17_80X_mcRun2_asymptotic_2016_TrancheIV_v6-v1/V08-00-16/merged_ntuple_103.root
p120
aV/hadoop/cms/store/group/snt/run2_moriond17/WJetsToLNu_TuneCUETP8M1_13TeV-madgraphMLM-pythia8_RunIISummer16MiniAODv2-PUMoriond17_80X_mcRun2_asymptotic_2016_TrancheIV_v6-v1/V08-00-16/merged_ntuple_104.root
p121
aV/hadoop/cms/store/group/snt/run2_moriond17/WJetsToLNu_TuneCUETP8M1_13TeV-madgraphMLM-pythia8_RunIISummer16MiniAODv2-PUMoriond17_80X_mcRun2_asymptotic_2016_TrancheIV_v6-v1/V08-00-16/merged_ntuple_105.root
p122
aV/hadoop/cms/store/group/snt/run2_moriond17/WJetsToLNu_TuneCUETP8M1_13TeV-madgraphMLM-pythia8_RunIISummer16MiniAODv2-PUMoriond17_80X_mcRun2_asymptotic_2016_TrancheIV_v6-v1/V08-00-16/merged_ntuple_106.root
p123
aV/hadoop/cms/store/group/snt/run2_moriond17/WJetsToLNu_TuneCUETP8M1_13TeV-madgraphMLM-pythia8_RunIISummer16MiniAODv2-PUMoriond17_80X_mcRun2_asymptotic_2016_TrancheIV_v6-v1/V08-00-16/merged_ntuple_107.root
p124
aV/hadoop/cms/store/group/snt/run2_moriond17/WJetsToLNu_TuneCUETP8M1_13TeV-madgraphMLM-pythia8_RunIISummer16MiniAODv2-PUMoriond17_80X_mcRun2_asymptotic_2016_TrancheIV_v6-v1/V08-00-16/merged_ntuple_108.root
p125
aV/hadoop/cms/store/group/snt/run2_moriond17/WJetsToLNu_TuneCUETP8M1_13TeV-madgraphMLM-pythia8_RunIISummer16MiniAODv2-PUMoriond17_80X_mcRun2_asymptotic_2016_TrancheIV_v6-v1/V08-00-16/merged_ntuple_109.root
p126
aV/hadoop/cms/store/group/snt/run2_moriond17/WJetsToLNu_TuneCUETP8M1_13TeV-madgraphMLM-pythia8_RunIISummer16MiniAODv2-PUMoriond17_80X_mcRun2_asymptotic_2016_TrancheIV_v6-v1/V08-00-16/merged_ntuple_11.root
p127
aV/hadoop/cms/store/group/snt/run2_moriond17/WJetsToLNu_TuneCUETP8M1_13TeV-madgraphMLM-pythia8_RunIISummer16MiniAODv2-PUMoriond17_80X_mcRun2_asymptotic_2016_TrancheIV_v6-v1/V08-00-16/merged_ntuple_110.root
p128
aV/hadoop/cms/store/group/snt/run2_moriond17/WJetsToLNu_TuneCUETP8M1_13TeV-madgraphMLM-pythia8_RunIISummer16MiniAODv2-PUMoriond17_80X_mcRun2_asymptotic_2016_TrancheIV_v6-v1/V08-00-16/merged_ntuple_111.root
p129
aV/hadoop/cms/store/group/snt/run2_moriond17/WJetsToLNu_TuneCUETP8M1_13TeV-madgraphMLM-pythia8_RunIISummer16MiniAODv2-PUMoriond17_80X_mcRun2_asymptotic_2016_TrancheIV_v6-v1/V08-00-16/merged_ntuple_112.root
p130
aV/hadoop/cms/store/group/snt/run2_moriond17/WJetsToLNu_TuneCUETP8M1_13TeV-madgraphMLM-pythia8_RunIISummer16MiniAODv2-PUMoriond17_80X_mcRun2_asymptotic_2016_TrancheIV_v6-v1/V08-00-16/merged_ntuple_113.root
p131
aV/hadoop/cms/store/group/snt/run2_moriond17/WJetsToLNu_TuneCUETP8M1_13TeV-madgraphMLM-pythia8_RunIISummer16MiniAODv2-PUMoriond17_80X_mcRun2_asymptotic_2016_TrancheIV_v6-v1/V08-00-16/merged_ntuple_114.root
p132
aV/hadoop/cms/store/group/snt/run2_moriond17/WJetsToLNu_TuneCUETP8M1_13TeV-madgraphMLM-pythia8_RunIISummer16MiniAODv2-PUMoriond17_80X_mcRun2_asymptotic_2016_TrancheIV_v6-v1/V08-00-16/merged_ntuple_115.root
p133
aV/hadoop/cms/store/group/snt/run2_moriond17/WJetsToLNu_TuneCUETP8M1_13TeV-madgraphMLM-pythia8_RunIISummer16MiniAODv2-PUMoriond17_80X_mcRun2_asymptotic_2016_TrancheIV_v6-v1/V08-00-16/merged_ntuple_116.root
p134
aV/hadoop/cms/store/group/snt/run2_moriond17/WJetsToLNu_TuneCUETP8M1_13TeV-madgraphMLM-pythia8_RunIISummer16MiniAODv2-PUMoriond17_80X_mcRun2_asymptotic_2016_TrancheIV_v6-v1/V08-00-16/merged_ntuple_117.root
p135
aV/hadoop/cms/store/group/snt/run2_moriond17/WJetsToLNu_TuneCUETP8M1_13TeV-madgraphMLM-pythia8_RunIISummer16MiniAODv2-PUMoriond17_80X_mcRun2_asymptotic_2016_TrancheIV_v6-v1/V08-00-16/merged_ntuple_118.root
p136
aV/hadoop/cms/store/group/snt/run2_moriond17/WJetsToLNu_TuneCUETP8M1_13TeV-madgraphMLM-pythia8_RunIISummer16MiniAODv2-PUMoriond17_80X_mcRun2_asymptotic_2016_TrancheIV_v6-v1/V08-00-16/merged_ntuple_119.root
p137
aV/hadoop/cms/store/group/snt/run2_moriond17/WJetsToLNu_TuneCUETP8M1_13TeV-madgraphMLM-pythia8_RunIISummer16MiniAODv2-PUMoriond17_80X_mcRun2_asymptotic_2016_TrancheIV_v6-v1/V08-00-16/merged_ntuple_12.root
p138
aV/hadoop/cms/store/group/snt/run2_moriond17/WJetsToLNu_TuneCUETP8M1_13TeV-madgraphMLM-pythia8_RunIISummer16MiniAODv2-PUMoriond17_80X_mcRun2_asymptotic_2016_TrancheIV_v6-v1/V08-00-16/merged_ntuple_120.root
p139
aV/hadoop/cms/store/group/snt/run2_moriond17/WJetsToLNu_TuneCUETP8M1_13TeV-madgraphMLM-pythia8_RunIISummer16MiniAODv2-PUMoriond17_80X_mcRun2_asymptotic_2016_TrancheIV_v6-v1/V08-00-16/merged_ntuple_121.root
p140
aV/hadoop/cms/store/group/snt/run2_moriond17/WJetsToLNu_TuneCUETP8M1_13TeV-madgraphMLM-pythia8_RunIISummer16MiniAODv2-PUMoriond17_80X_mcRun2_asymptotic_2016_TrancheIV_v6-v1/V08-00-16/merged_ntuple_122.root
p141
aV/hadoop/cms/store/group/snt/run2_moriond17/WJetsToLNu_TuneCUETP8M1_13TeV-madgraphMLM-pythia8_RunIISummer16MiniAODv2-PUMoriond17_80X_mcRun2_asymptotic_2016_TrancheIV_v6-v1/V08-00-16/merged_ntuple_123.root
p142
aV/hadoop/cms/store/group/snt/run2_moriond17/WJetsToLNu_TuneCUETP8M1_13TeV-madgraphMLM-pythia8_RunIISummer16MiniAODv2-PUMoriond17_80X_mcRun2_asymptotic_2016_TrancheIV_v6-v1/V08-00-16/merged_ntuple_124.root
p143
aV/hadoop/cms/store/group/snt/run2_moriond17/WJetsToLNu_TuneCUETP8M1_13TeV-madgraphMLM-pythia8_RunIISummer16MiniAODv2-PUMoriond17_80X_mcRun2_asymptotic_2016_TrancheIV_v6-v1/V08-00-16/merged_ntuple_125.root
p144
aV/hadoop/cms/store/group/snt/run2_moriond17/WJetsToLNu_TuneCUETP8M1_13TeV-madgraphMLM-pythia8_RunIISummer16MiniAODv2-PUMoriond17_80X_mcRun2_asymptotic_2016_TrancheIV_v6-v1/V08-00-16/merged_ntuple_126.root
p145
aV/hadoop/cms/store/group/snt/run2_moriond17/WJetsToLNu_TuneCUETP8M1_13TeV-madgraphMLM-pythia8_RunIISummer16MiniAODv2-PUMoriond17_80X_mcRun2_asymptotic_2016_TrancheIV_v6-v1/V08-00-16/merged_ntuple_127.root
p146
aV/hadoop/cms/store/group/snt/run2_moriond17/WJetsToLNu_TuneCUETP8M1_13TeV-madgraphMLM-pythia8_RunIISummer16MiniAODv2-PUMoriond17_80X_mcRun2_asymptotic_2016_TrancheIV_v6-v1/V08-00-16/merged_ntuple_128.root
p147
aV/hadoop/cms/store/group/snt/run2_moriond17/WJetsToLNu_TuneCUETP8M1_13TeV-madgraphMLM-pythia8_RunIISummer16MiniAODv2-PUMoriond17_80X_mcRun2_asymptotic_2016_TrancheIV_v6-v1/V08-00-16/merged_ntuple_129.root
p148
aV/hadoop/cms/store/group/snt/run2_moriond17/WJetsToLNu_TuneCUETP8M1_13TeV-madgraphMLM-pythia8_RunIISummer16MiniAODv2-PUMoriond17_80X_mcRun2_asymptotic_2016_TrancheIV_v6-v1/V08-00-16/merged_ntuple_13.root
p149
aV/hadoop/cms/store/group/snt/run2_moriond17/WJetsToLNu_TuneCUETP8M1_13TeV-madgraphMLM-pythia8_RunIISummer16MiniAODv2-PUMoriond17_80X_mcRun2_asymptotic_2016_TrancheIV_v6-v1/V08-00-16/merged_ntuple_130.root
p150
aV/hadoop/cms/store/group/snt/run2_moriond17/WJetsToLNu_TuneCUETP8M1_13TeV-madgraphMLM-pythia8_RunIISummer16MiniAODv2-PUMoriond17_80X_mcRun2_asymptotic_2016_TrancheIV_v6-v1/V08-00-16/merged_ntuple_131.root
p151
aV/hadoop/cms/store/group/snt/run2_moriond17/WJetsToLNu_TuneCUETP8M1_13TeV-madgraphMLM-pythia8_RunIISummer16MiniAODv2-PUMoriond17_80X_mcRun2_asymptotic_2016_TrancheIV_v6-v1/V08-00-16/merged_ntuple_132.root
p152
aV/hadoop/cms/store/group/snt/run2_moriond17/WJetsToLNu_TuneCUETP8M1_13TeV-madgraphMLM-pythia8_RunIISummer16MiniAODv2-PUMoriond17_80X_mcRun2_asymptotic_2016_TrancheIV_v6-v1/V08-00-16/merged_ntuple_133.root
p153
aV/hadoop/cms/store/group/snt/run2_moriond17/WJetsToLNu_TuneCUETP8M1_13TeV-madgraphMLM-pythia8_RunIISummer16MiniAODv2-PUMoriond17_80X_mcRun2_asymptotic_2016_TrancheIV_v6-v1/V08-00-16/merged_ntuple_134.root
p154
aV/hadoop/cms/store/group/snt/run2_moriond17/WJetsToLNu_TuneCUETP8M1_13TeV-madgraphMLM-pythia8_RunIISummer16MiniAODv2-PUMoriond17_80X_mcRun2_asymptotic_2016_TrancheIV_v6-v1/V08-00-16/merged_ntuple_135.root
p155
aV/hadoop/cms/store/group/snt/run2_moriond17/WJetsToLNu_TuneCUETP8M1_13TeV-madgraphMLM-pythia8_RunIISummer16MiniAODv2-PUMoriond17_80X_mcRun2_asymptotic_2016_TrancheIV_v6-v1/V08-00-16/merged_ntuple_136.root
p156
aV/hadoop/cms/store/group/snt/run2_moriond17/WJetsToLNu_TuneCUETP8M1_13TeV-madgraphMLM-pythia8_RunIISummer16MiniAODv2-PUMoriond17_80X_mcRun2_asymptotic_2016_TrancheIV_v6-v1/V08-00-16/merged_ntuple_137.root
p157
aV/hadoop/cms/store/group/snt/run2_moriond17/WJetsToLNu_TuneCUETP8M1_13TeV-madgraphMLM-pythia8_RunIISummer16MiniAODv2-PUMoriond17_80X_mcRun2_asymptotic_2016_TrancheIV_v6-v1/V08-00-16/merged_ntuple_138.root
p158
aV/hadoop/cms/store/group/snt/run2_moriond17/WJetsToLNu_TuneCUETP8M1_13TeV-madgraphMLM-pythia8_RunIISummer16MiniAODv2-PUMoriond17_80X_mcRun2_asymptotic_2016_TrancheIV_v6-v1/V08-00-16/merged_ntuple_139.root
p159
aV/hadoop/cms/store/group/snt/run2_moriond17/WJetsToLNu_TuneCUETP8M1_13TeV-madgraphMLM-pythia8_RunIISummer16MiniAODv2-PUMoriond17_80X_mcRun2_asymptotic_2016_TrancheIV_v6-v1/V08-00-16/merged_ntuple_14.root
p160
aV/hadoop/cms/store/group/snt/run2_moriond17/WJetsToLNu_TuneCUETP8M1_13TeV-madgraphMLM-pythia8_RunIISummer16MiniAODv2-PUMoriond17_80X_mcRun2_asymptotic_2016_TrancheIV_v6-v1/V08-00-16/merged_ntuple_140.root
p161
aV/hadoop/cms/store/group/snt/run2_moriond17/WJetsToLNu_TuneCUETP8M1_13TeV-madgraphMLM-pythia8_RunIISummer16MiniAODv2-PUMoriond17_80X_mcRun2_asymptotic_2016_TrancheIV_v6-v1/V08-00-16/merged_ntuple_141.root
p162
aV/hadoop/cms/store/group/snt/run2_moriond17/WJetsToLNu_TuneCUETP8M1_13TeV-madgraphMLM-pythia8_RunIISummer16MiniAODv2-PUMoriond17_80X_mcRun2_asymptotic_2016_TrancheIV_v6-v1/V08-00-16/merged_ntuple_142.root
p163
aV/hadoop/cms/store/group/snt/run2_moriond17/WJetsToLNu_TuneCUETP8M1_13TeV-madgraphMLM-pythia8_RunIISummer16MiniAODv2-PUMoriond17_80X_mcRun2_asymptotic_2016_TrancheIV_v6-v1/V08-00-16/merged_ntuple_143.root
p164
aV/hadoop/cms/store/group/snt/run2_moriond17/WJetsToLNu_TuneCUETP8M1_13TeV-madgraphMLM-pythia8_RunIISummer16MiniAODv2-PUMoriond17_80X_mcRun2_asymptotic_2016_TrancheIV_v6-v1/V08-00-16/merged_ntuple_144.root
p165
aV/hadoop/cms/store/group/snt/run2_moriond17/WJetsToLNu_TuneCUETP8M1_13TeV-madgraphMLM-pythia8_RunIISummer16MiniAODv2-PUMoriond17_80X_mcRun2_asymptotic_2016_TrancheIV_v6-v1/V08-00-16/merged_ntuple_145.root
p166
aV/hadoop/cms/store/group/snt/run2_moriond17/WJetsToLNu_TuneCUETP8M1_13TeV-madgraphMLM-pythia8_RunIISummer16MiniAODv2-PUMoriond17_80X_mcRun2_asymptotic_2016_TrancheIV_v6-v1/V08-00-16/merged_ntuple_146.root
p167
aV/hadoop/cms/store/group/snt/run2_moriond17/WJetsToLNu_TuneCUETP8M1_13TeV-madgraphMLM-pythia8_RunIISummer16MiniAODv2-PUMoriond17_80X_mcRun2_asymptotic_2016_TrancheIV_v6-v1/V08-00-16/merged_ntuple_147.root
p168
aV/hadoop/cms/store/group/snt/run2_moriond17/WJetsToLNu_TuneCUETP8M1_13TeV-madgraphMLM-pythia8_RunIISummer16MiniAODv2-PUMoriond17_80X_mcRun2_asymptotic_2016_TrancheIV_v6-v1/V08-00-16/merged_ntuple_148.root
p169
aV/hadoop/cms/store/group/snt/run2_moriond17/WJetsToLNu_TuneCUETP8M1_13TeV-madgraphMLM-pythia8_RunIISummer16MiniAODv2-PUMoriond17_80X_mcRun2_asymptotic_2016_TrancheIV_v6-v1/V08-00-16/merged_ntuple_149.root
p170
aV/hadoop/cms/store/group/snt/run2_moriond17/WJetsToLNu_TuneCUETP8M1_13TeV-madgraphMLM-pythia8_RunIISummer16MiniAODv2-PUMoriond17_80X_mcRun2_asymptotic_2016_TrancheIV_v6-v1/V08-00-16/merged_ntuple_15.root
p171
aV/hadoop/cms/store/group/snt/run2_moriond17/WJetsToLNu_TuneCUETP8M1_13TeV-madgraphMLM-pythia8_RunIISummer16MiniAODv2-PUMoriond17_80X_mcRun2_asymptotic_2016_TrancheIV_v6-v1/V08-00-16/merged_ntuple_150.root
p172
aV/hadoop/cms/store/group/snt/run2_moriond17/WJetsToLNu_TuneCUETP8M1_13TeV-madgraphMLM-pythia8_RunIISummer16MiniAODv2-PUMoriond17_80X_mcRun2_asymptotic_2016_TrancheIV_v6-v1/V08-00-16/merged_ntuple_151.root
p173
aV/hadoop/cms/store/group/snt/run2_moriond17/WJetsToLNu_TuneCUETP8M1_13TeV-madgraphMLM-pythia8_RunIISummer16MiniAODv2-PUMoriond17_80X_mcRun2_asymptotic_2016_TrancheIV_v6-v1/V08-00-16/merged_ntuple_152.root
p174
aV/hadoop/cms/store/group/snt/run2_moriond17/WJetsToLNu_TuneCUETP8M1_13TeV-madgraphMLM-pythia8_RunIISummer16MiniAODv2-PUMoriond17_80X_mcRun2_asymptotic_2016_TrancheIV_v6-v1/V08-00-16/merged_ntuple_153.root
p175
aV/hadoop/cms/store/group/snt/run2_moriond17/WJetsToLNu_TuneCUETP8M1_13TeV-madgraphMLM-pythia8_RunIISummer16MiniAODv2-PUMoriond17_80X_mcRun2_asymptotic_2016_TrancheIV_v6-v1/V08-00-16/merged_ntuple_154.root
p176
aV/hadoop/cms/store/group/snt/run2_moriond17/WJetsToLNu_TuneCUETP8M1_13TeV-madgraphMLM-pythia8_RunIISummer16MiniAODv2-PUMoriond17_80X_mcRun2_asymptotic_2016_TrancheIV_v6-v1/V08-00-16/merged_ntuple_155.root
p177
aV/hadoop/cms/store/group/snt/run2_moriond17/WJetsToLNu_TuneCUETP8M1_13TeV-madgraphMLM-pythia8_RunIISummer16MiniAODv2-PUMoriond17_80X_mcRun2_asymptotic_2016_TrancheIV_v6-v1/V08-00-16/merged_ntuple_156.root
p178
aV/hadoop/cms/store/group/snt/run2_moriond17/WJetsToLNu_TuneCUETP8M1_13TeV-madgraphMLM-pythia8_RunIISummer16MiniAODv2-PUMoriond17_80X_mcRun2_asymptotic_2016_TrancheIV_v6-v1/V08-00-16/merged_ntuple_157.root
p179
aV/hadoop/cms/store/group/snt/run2_moriond17/WJetsToLNu_TuneCUETP8M1_13TeV-madgraphMLM-pythia8_RunIISummer16MiniAODv2-PUMoriond17_80X_mcRun2_asymptotic_2016_TrancheIV_v6-v1/V08-00-16/merged_ntuple_158.root
p180
aV/hadoop/cms/store/group/snt/run2_moriond17/WJetsToLNu_TuneCUETP8M1_13TeV-madgraphMLM-pythia8_RunIISummer16MiniAODv2-PUMoriond17_80X_mcRun2_asymptotic_2016_TrancheIV_v6-v1/V08-00-16/merged_ntuple_159.root
p181
aV/hadoop/cms/store/group/snt/run2_moriond17/WJetsToLNu_TuneCUETP8M1_13TeV-madgraphMLM-pythia8_RunIISummer16MiniAODv2-PUMoriond17_80X_mcRun2_asymptotic_2016_TrancheIV_v6-v1/V08-00-16/merged_ntuple_16.root
p182
aV/hadoop/cms/store/group/snt/run2_moriond17/WJetsToLNu_TuneCUETP8M1_13TeV-madgraphMLM-pythia8_RunIISummer16MiniAODv2-PUMoriond17_80X_mcRun2_asymptotic_2016_TrancheIV_v6-v1/V08-00-16/merged_ntuple_160.root
p183
aV/hadoop/cms/store/group/snt/run2_moriond17/WJetsToLNu_TuneCUETP8M1_13TeV-madgraphMLM-pythia8_RunIISummer16MiniAODv2-PUMoriond17_80X_mcRun2_asymptotic_2016_TrancheIV_v6-v1/V08-00-16/merged_ntuple_17.root
p184
aV/hadoop/cms/store/group/snt/run2_moriond17/WJetsToLNu_TuneCUETP8M1_13TeV-madgraphMLM-pythia8_RunIISummer16MiniAODv2-PUMoriond17_80X_mcRun2_asymptotic_2016_TrancheIV_v6-v1/V08-00-16/merged_ntuple_18.root
p185
aV/hadoop/cms/store/group/snt/run2_moriond17/WJetsToLNu_TuneCUETP8M1_13TeV-madgraphMLM-pythia8_RunIISummer16MiniAODv2-PUMoriond17_80X_mcRun2_asymptotic_2016_TrancheIV_v6-v1/V08-00-16/merged_ntuple_19.root
p186
aV/hadoop/cms/store/group/snt/run2_moriond17/WJetsToLNu_TuneCUETP8M1_13TeV-madgraphMLM-pythia8_RunIISummer16MiniAODv2-PUMoriond17_80X_mcRun2_asymptotic_2016_TrancheIV_v6-v1/V08-00-16/merged_ntuple_2.root
p187
aV/hadoop/cms/store/group/snt/run2_moriond17/WJetsToLNu_TuneCUETP8M1_13TeV-madgraphMLM-pythia8_RunIISummer16MiniAODv2-PUMoriond17_80X_mcRun2_asymptotic_2016_TrancheIV_v6-v1/V08-00-16/merged_ntuple_20.root
p188
aV/hadoop/cms/store/group/snt/run2_moriond17/WJetsToLNu_TuneCUETP8M1_13TeV-madgraphMLM-pythia8_RunIISummer16MiniAODv2-PUMoriond17_80X_mcRun2_asymptotic_2016_TrancheIV_v6-v1/V08-00-16/merged_ntuple_21.root
p189
aV/hadoop/cms/store/group/snt/run2_moriond17/WJetsToLNu_TuneCUETP8M1_13TeV-madgraphMLM-pythia8_RunIISummer16MiniAODv2-PUMoriond17_80X_mcRun2_asymptotic_2016_TrancheIV_v6-v1/V08-00-16/merged_ntuple_22.root
p190
aV/hadoop/cms/store/group/snt/run2_moriond17/WJetsToLNu_TuneCUETP8M1_13TeV-madgraphMLM-pythia8_RunIISummer16MiniAODv2-PUMoriond17_80X_mcRun2_asymptotic_2016_TrancheIV_v6-v1/V08-00-16/merged_ntuple_23.root
p191
aV/hadoop/cms/store/group/snt/run2_moriond17/WJetsToLNu_TuneCUETP8M1_13TeV-madgraphMLM-pythia8_RunIISummer16MiniAODv2-PUMoriond17_80X_mcRun2_asymptotic_2016_TrancheIV_v6-v1/V08-00-16/merged_ntuple_24.root
p192
aV/hadoop/cms/store/group/snt/run2_moriond17/WJetsToLNu_TuneCUETP8M1_13TeV-madgraphMLM-pythia8_RunIISummer16MiniAODv2-PUMoriond17_80X_mcRun2_asymptotic_2016_TrancheIV_v6-v1/V08-00-16/merged_ntuple_25.root
p193
aV/hadoop/cms/store/group/snt/run2_moriond17/WJetsToLNu_TuneCUETP8M1_13TeV-madgraphMLM-pythia8_RunIISummer16MiniAODv2-PUMoriond17_80X_mcRun2_asymptotic_2016_TrancheIV_v6-v1/V08-00-16/merged_ntuple_26.root
p194
aV/hadoop/cms/store/group/snt/run2_moriond17/WJetsToLNu_TuneCUETP8M1_13TeV-madgraphMLM-pythia8_RunIISummer16MiniAODv2-PUMoriond17_80X_mcRun2_asymptotic_2016_TrancheIV_v6-v1/V08-00-16/merged_ntuple_27.root
p195
aV/hadoop/cms/store/group/snt/run2_moriond17/WJetsToLNu_TuneCUETP8M1_13TeV-madgraphMLM-pythia8_RunIISummer16MiniAODv2-PUMoriond17_80X_mcRun2_asymptotic_2016_TrancheIV_v6-v1/V08-00-16/merged_ntuple_28.root
p196
aV/hadoop/cms/store/group/snt/run2_moriond17/WJetsToLNu_TuneCUETP8M1_13TeV-madgraphMLM-pythia8_RunIISummer16MiniAODv2-PUMoriond17_80X_mcRun2_asymptotic_2016_TrancheIV_v6-v1/V08-00-16/merged_ntuple_29.root
p197
aV/hadoop/cms/store/group/snt/run2_moriond17/WJetsToLNu_TuneCUETP8M1_13TeV-madgraphMLM-pythia8_RunIISummer16MiniAODv2-PUMoriond17_80X_mcRun2_asymptotic_2016_TrancheIV_v6-v1/V08-00-16/merged_ntuple_3.root
p198
aV/hadoop/cms/store/group/snt/run2_moriond17/WJetsToLNu_TuneCUETP8M1_13TeV-madgraphMLM-pythia8_RunIISummer16MiniAODv2-PUMoriond17_80X_mcRun2_asymptotic_2016_TrancheIV_v6-v1/V08-00-16/merged_ntuple_30.root
p199
aV/hadoop/cms/store/group/snt/run2_moriond17/WJetsToLNu_TuneCUETP8M1_13TeV-madgraphMLM-pythia8_RunIISummer16MiniAODv2-PUMoriond17_80X_mcRun2_asymptotic_2016_TrancheIV_v6-v1/V08-00-16/merged_ntuple_31.root
p200
aV/hadoop/cms/store/group/snt/run2_moriond17/WJetsToLNu_TuneCUETP8M1_13TeV-madgraphMLM-pythia8_RunIISummer16MiniAODv2-PUMoriond17_80X_mcRun2_asymptotic_2016_TrancheIV_v6-v1/V08-00-16/merged_ntuple_32.root
p201
aV/hadoop/cms/store/group/snt/run2_moriond17/WJetsToLNu_TuneCUETP8M1_13TeV-madgraphMLM-pythia8_RunIISummer16MiniAODv2-PUMoriond17_80X_mcRun2_asymptotic_2016_TrancheIV_v6-v1/V08-00-16/merged_ntuple_33.root
p202
aV/hadoop/cms/store/group/snt/run2_moriond17/WJetsToLNu_TuneCUETP8M1_13TeV-madgraphMLM-pythia8_RunIISummer16MiniAODv2-PUMoriond17_80X_mcRun2_asymptotic_2016_TrancheIV_v6-v1/V08-00-16/merged_ntuple_34.root
p203
aV/hadoop/cms/store/group/snt/run2_moriond17/WJetsToLNu_TuneCUETP8M1_13TeV-madgraphMLM-pythia8_RunIISummer16MiniAODv2-PUMoriond17_80X_mcRun2_asymptotic_2016_TrancheIV_v6-v1/V08-00-16/merged_ntuple_35.root
p204
aV/hadoop/cms/store/group/snt/run2_moriond17/WJetsToLNu_TuneCUETP8M1_13TeV-madgraphMLM-pythia8_RunIISummer16MiniAODv2-PUMoriond17_80X_mcRun2_asymptotic_2016_TrancheIV_v6-v1/V08-00-16/merged_ntuple_36.root
p205
aV/hadoop/cms/store/group/snt/run2_moriond17/WJetsToLNu_TuneCUETP8M1_13TeV-madgraphMLM-pythia8_RunIISummer16MiniAODv2-PUMoriond17_80X_mcRun2_asymptotic_2016_TrancheIV_v6-v1/V08-00-16/merged_ntuple_37.root
p206
aV/hadoop/cms/store/group/snt/run2_moriond17/WJetsToLNu_TuneCUETP8M1_13TeV-madgraphMLM-pythia8_RunIISummer16MiniAODv2-PUMoriond17_80X_mcRun2_asymptotic_2016_TrancheIV_v6-v1/V08-00-16/merged_ntuple_38.root
p207
aV/hadoop/cms/store/group/snt/run2_moriond17/WJetsToLNu_TuneCUETP8M1_13TeV-madgraphMLM-pythia8_RunIISummer16MiniAODv2-PUMoriond17_80X_mcRun2_asymptotic_2016_TrancheIV_v6-v1/V08-00-16/merged_ntuple_39.root
p208
aV/hadoop/cms/store/group/snt/run2_moriond17/WJetsToLNu_TuneCUETP8M1_13TeV-madgraphMLM-pythia8_RunIISummer16MiniAODv2-PUMoriond17_80X_mcRun2_asymptotic_2016_TrancheIV_v6-v1/V08-00-16/merged_ntuple_4.root
p209
aV/hadoop/cms/store/group/snt/run2_moriond17/WJetsToLNu_TuneCUETP8M1_13TeV-madgraphMLM-pythia8_RunIISummer16MiniAODv2-PUMoriond17_80X_mcRun2_asymptotic_2016_TrancheIV_v6-v1/V08-00-16/merged_ntuple_40.root
p210
aV/hadoop/cms/store/group/snt/run2_moriond17/WJetsToLNu_TuneCUETP8M1_13TeV-madgraphMLM-pythia8_RunIISummer16MiniAODv2-PUMoriond17_80X_mcRun2_asymptotic_2016_TrancheIV_v6-v1/V08-00-16/merged_ntuple_41.root
p211
aV/hadoop/cms/store/group/snt/run2_moriond17/WJetsToLNu_TuneCUETP8M1_13TeV-madgraphMLM-pythia8_RunIISummer16MiniAODv2-PUMoriond17_80X_mcRun2_asymptotic_2016_TrancheIV_v6-v1/V08-00-16/merged_ntuple_42.root
p212
aV/hadoop/cms/store/group/snt/run2_moriond17/WJetsToLNu_TuneCUETP8M1_13TeV-madgraphMLM-pythia8_RunIISummer16MiniAODv2-PUMoriond17_80X_mcRun2_asymptotic_2016_TrancheIV_v6-v1/V08-00-16/merged_ntuple_43.root
p213
aV/hadoop/cms/store/group/snt/run2_moriond17/WJetsToLNu_TuneCUETP8M1_13TeV-madgraphMLM-pythia8_RunIISummer16MiniAODv2-PUMoriond17_80X_mcRun2_asymptotic_2016_TrancheIV_v6-v1/V08-00-16/merged_ntuple_44.root
p214
aV/hadoop/cms/store/group/snt/run2_moriond17/WJetsToLNu_TuneCUETP8M1_13TeV-madgraphMLM-pythia8_RunIISummer16MiniAODv2-PUMoriond17_80X_mcRun2_asymptotic_2016_TrancheIV_v6-v1/V08-00-16/merged_ntuple_45.root
p215
aV/hadoop/cms/store/group/snt/run2_moriond17/WJetsToLNu_TuneCUETP8M1_13TeV-madgraphMLM-pythia8_RunIISummer16MiniAODv2-PUMoriond17_80X_mcRun2_asymptotic_2016_TrancheIV_v6-v1/V08-00-16/merged_ntuple_46.root
p216
aV/hadoop/cms/store/group/snt/run2_moriond17/WJetsToLNu_TuneCUETP8M1_13TeV-madgraphMLM-pythia8_RunIISummer16MiniAODv2-PUMoriond17_80X_mcRun2_asymptotic_2016_TrancheIV_v6-v1/V08-00-16/merged_ntuple_47.root
p217
aV/hadoop/cms/store/group/snt/run2_moriond17/WJetsToLNu_TuneCUETP8M1_13TeV-madgraphMLM-pythia8_RunIISummer16MiniAODv2-PUMoriond17_80X_mcRun2_asymptotic_2016_TrancheIV_v6-v1/V08-00-16/merged_ntuple_48.root
p218
aV/hadoop/cms/store/group/snt/run2_moriond17/WJetsToLNu_TuneCUETP8M1_13TeV-madgraphMLM-pythia8_RunIISummer16MiniAODv2-PUMoriond17_80X_mcRun2_asymptotic_2016_TrancheIV_v6-v1/V08-00-16/merged_ntuple_49.root
p219
aV/hadoop/cms/store/group/snt/run2_moriond17/WJetsToLNu_TuneCUETP8M1_13TeV-madgraphMLM-pythia8_RunIISummer16MiniAODv2-PUMoriond17_80X_mcRun2_asymptotic_2016_TrancheIV_v6-v1/V08-00-16/merged_ntuple_5.root
p220
aV/hadoop/cms/store/group/snt/run2_moriond17/WJetsToLNu_TuneCUETP8M1_13TeV-madgraphMLM-pythia8_RunIISummer16MiniAODv2-PUMoriond17_80X_mcRun2_asymptotic_2016_TrancheIV_v6-v1/V08-00-16/merged_ntuple_50.root
p221
aV/hadoop/cms/store/group/snt/run2_moriond17/WJetsToLNu_TuneCUETP8M1_13TeV-madgraphMLM-pythia8_RunIISummer16MiniAODv2-PUMoriond17_80X_mcRun2_asymptotic_2016_TrancheIV_v6-v1/V08-00-16/merged_ntuple_51.root
p222
aV/hadoop/cms/store/group/snt/run2_moriond17/WJetsToLNu_TuneCUETP8M1_13TeV-madgraphMLM-pythia8_RunIISummer16MiniAODv2-PUMoriond17_80X_mcRun2_asymptotic_2016_TrancheIV_v6-v1/V08-00-16/merged_ntuple_52.root
p223
aV/hadoop/cms/store/group/snt/run2_moriond17/WJetsToLNu_TuneCUETP8M1_13TeV-madgraphMLM-pythia8_RunIISummer16MiniAODv2-PUMoriond17_80X_mcRun2_asymptotic_2016_TrancheIV_v6-v1/V08-00-16/merged_ntuple_53.root
p224
aV/hadoop/cms/store/group/snt/run2_moriond17/WJetsToLNu_TuneCUETP8M1_13TeV-madgraphMLM-pythia8_RunIISummer16MiniAODv2-PUMoriond17_80X_mcRun2_asymptotic_2016_TrancheIV_v6-v1/V08-00-16/merged_ntuple_54.root
p225
aV/hadoop/cms/store/group/snt/run2_moriond17/WJetsToLNu_TuneCUETP8M1_13TeV-madgraphMLM-pythia8_RunIISummer16MiniAODv2-PUMoriond17_80X_mcRun2_asymptotic_2016_TrancheIV_v6-v1/V08-00-16/merged_ntuple_55.root
p226
aV/hadoop/cms/store/group/snt/run2_moriond17/WJetsToLNu_TuneCUETP8M1_13TeV-madgraphMLM-pythia8_RunIISummer16MiniAODv2-PUMoriond17_80X_mcRun2_asymptotic_2016_TrancheIV_v6-v1/V08-00-16/merged_ntuple_56.root
p227
aV/hadoop/cms/store/group/snt/run2_moriond17/WJetsToLNu_TuneCUETP8M1_13TeV-madgraphMLM-pythia8_RunIISummer16MiniAODv2-PUMoriond17_80X_mcRun2_asymptotic_2016_TrancheIV_v6-v1/V08-00-16/merged_ntuple_57.root
p228
aV/hadoop/cms/store/group/snt/run2_moriond17/WJetsToLNu_TuneCUETP8M1_13TeV-madgraphMLM-pythia8_RunIISummer16MiniAODv2-PUMoriond17_80X_mcRun2_asymptotic_2016_TrancheIV_v6-v1/V08-00-16/merged_ntuple_58.root
p229
aV/hadoop/cms/store/group/snt/run2_moriond17/WJetsToLNu_TuneCUETP8M1_13TeV-madgraphMLM-pythia8_RunIISummer16MiniAODv2-PUMoriond17_80X_mcRun2_asymptotic_2016_TrancheIV_v6-v1/V08-00-16/merged_ntuple_59.root
p230
aV/hadoop/cms/store/group/snt/run2_moriond17/WJetsToLNu_TuneCUETP8M1_13TeV-madgraphMLM-pythia8_RunIISummer16MiniAODv2-PUMoriond17_80X_mcRun2_asymptotic_2016_TrancheIV_v6-v1/V08-00-16/merged_ntuple_6.root
p231
aV/hadoop/cms/store/group/snt/run2_moriond17/WJetsToLNu_TuneCUETP8M1_13TeV-madgraphMLM-pythia8_RunIISummer16MiniAODv2-PUMoriond17_80X_mcRun2_asymptotic_2016_TrancheIV_v6-v1/V08-00-16/merged_ntuple_60.root
p232
aV/hadoop/cms/store/group/snt/run2_moriond17/WJetsToLNu_TuneCUETP8M1_13TeV-madgraphMLM-pythia8_RunIISummer16MiniAODv2-PUMoriond17_80X_mcRun2_asymptotic_2016_TrancheIV_v6-v1/V08-00-16/merged_ntuple_61.root
p233
aV/hadoop/cms/store/group/snt/run2_moriond17/WJetsToLNu_TuneCUETP8M1_13TeV-madgraphMLM-pythia8_RunIISummer16MiniAODv2-PUMoriond17_80X_mcRun2_asymptotic_2016_TrancheIV_v6-v1/V08-00-16/merged_ntuple_62.root
p234
aV/hadoop/cms/store/group/snt/run2_moriond17/WJetsToLNu_TuneCUETP8M1_13TeV-madgraphMLM-pythia8_RunIISummer16MiniAODv2-PUMoriond17_80X_mcRun2_asymptotic_2016_TrancheIV_v6-v1/V08-00-16/merged_ntuple_63.root
p235
aV/hadoop/cms/store/group/snt/run2_moriond17/WJetsToLNu_TuneCUETP8M1_13TeV-madgraphMLM-pythia8_RunIISummer16MiniAODv2-PUMoriond17_80X_mcRun2_asymptotic_2016_TrancheIV_v6-v1/V08-00-16/merged_ntuple_64.root
p236
aV/hadoop/cms/store/group/snt/run2_moriond17/WJetsToLNu_TuneCUETP8M1_13TeV-madgraphMLM-pythia8_RunIISummer16MiniAODv2-PUMoriond17_80X_mcRun2_asymptotic_2016_TrancheIV_v6-v1/V08-00-16/merged_ntuple_65.root
p237
aV/hadoop/cms/store/group/snt/run2_moriond17/WJetsToLNu_TuneCUETP8M1_13TeV-madgraphMLM-pythia8_RunIISummer16MiniAODv2-PUMoriond17_80X_mcRun2_asymptotic_2016_TrancheIV_v6-v1/V08-00-16/merged_ntuple_66.root
p238
aV/hadoop/cms/store/group/snt/run2_moriond17/WJetsToLNu_TuneCUETP8M1_13TeV-madgraphMLM-pythia8_RunIISummer16MiniAODv2-PUMoriond17_80X_mcRun2_asymptotic_2016_TrancheIV_v6-v1/V08-00-16/merged_ntuple_67.root
p239
aV/hadoop/cms/store/group/snt/run2_moriond17/WJetsToLNu_TuneCUETP8M1_13TeV-madgraphMLM-pythia8_RunIISummer16MiniAODv2-PUMoriond17_80X_mcRun2_asymptotic_2016_TrancheIV_v6-v1/V08-00-16/merged_ntuple_68.root
p240
aV/hadoop/cms/store/group/snt/run2_moriond17/WJetsToLNu_TuneCUETP8M1_13TeV-madgraphMLM-pythia8_RunIISummer16MiniAODv2-PUMoriond17_80X_mcRun2_asymptotic_2016_TrancheIV_v6-v1/V08-00-16/merged_ntuple_69.root
p241
aV/hadoop/cms/store/group/snt/run2_moriond17/WJetsToLNu_TuneCUETP8M1_13TeV-madgraphMLM-pythia8_RunIISummer16MiniAODv2-PUMoriond17_80X_mcRun2_asymptotic_2016_TrancheIV_v6-v1/V08-00-16/merged_ntuple_7.root
p242
aV/hadoop/cms/store/group/snt/run2_moriond17/WJetsToLNu_TuneCUETP8M1_13TeV-madgraphMLM-pythia8_RunIISummer16MiniAODv2-PUMoriond17_80X_mcRun2_asymptotic_2016_TrancheIV_v6-v1/V08-00-16/merged_ntuple_70.root
p243
aV/hadoop/cms/store/group/snt/run2_moriond17/WJetsToLNu_TuneCUETP8M1_13TeV-madgraphMLM-pythia8_RunIISummer16MiniAODv2-PUMoriond17_80X_mcRun2_asymptotic_2016_TrancheIV_v6-v1/V08-00-16/merged_ntuple_71.root
p244
aV/hadoop/cms/store/group/snt/run2_moriond17/WJetsToLNu_TuneCUETP8M1_13TeV-madgraphMLM-pythia8_RunIISummer16MiniAODv2-PUMoriond17_80X_mcRun2_asymptotic_2016_TrancheIV_v6-v1/V08-00-16/merged_ntuple_72.root
p245
aV/hadoop/cms/store/group/snt/run2_moriond17/WJetsToLNu_TuneCUETP8M1_13TeV-madgraphMLM-pythia8_RunIISummer16MiniAODv2-PUMoriond17_80X_mcRun2_asymptotic_2016_TrancheIV_v6-v1/V08-00-16/merged_ntuple_73.root
p246
aV/hadoop/cms/store/group/snt/run2_moriond17/WJetsToLNu_TuneCUETP8M1_13TeV-madgraphMLM-pythia8_RunIISummer16MiniAODv2-PUMoriond17_80X_mcRun2_asymptotic_2016_TrancheIV_v6-v1/V08-00-16/merged_ntuple_74.root
p247
aV/hadoop/cms/store/group/snt/run2_moriond17/WJetsToLNu_TuneCUETP8M1_13TeV-madgraphMLM-pythia8_RunIISummer16MiniAODv2-PUMoriond17_80X_mcRun2_asymptotic_2016_TrancheIV_v6-v1/V08-00-16/merged_ntuple_75.root
p248
aV/hadoop/cms/store/group/snt/run2_moriond17/WJetsToLNu_TuneCUETP8M1_13TeV-madgraphMLM-pythia8_RunIISummer16MiniAODv2-PUMoriond17_80X_mcRun2_asymptotic_2016_TrancheIV_v6-v1/V08-00-16/merged_ntuple_76.root
p249
aV/hadoop/cms/store/group/snt/run2_moriond17/WJetsToLNu_TuneCUETP8M1_13TeV-madgraphMLM-pythia8_RunIISummer16MiniAODv2-PUMoriond17_80X_mcRun2_asymptotic_2016_TrancheIV_v6-v1/V08-00-16/merged_ntuple_77.root
p250
aV/hadoop/cms/store/group/snt/run2_moriond17/WJetsToLNu_TuneCUETP8M1_13TeV-madgraphMLM-pythia8_RunIISummer16MiniAODv2-PUMoriond17_80X_mcRun2_asymptotic_2016_TrancheIV_v6-v1/V08-00-16/merged_ntuple_78.root
p251
aV/hadoop/cms/store/group/snt/run2_moriond17/WJetsToLNu_TuneCUETP8M1_13TeV-madgraphMLM-pythia8_RunIISummer16MiniAODv2-PUMoriond17_80X_mcRun2_asymptotic_2016_TrancheIV_v6-v1/V08-00-16/merged_ntuple_79.root
p252
aV/hadoop/cms/store/group/snt/run2_moriond17/WJetsToLNu_TuneCUETP8M1_13TeV-madgraphMLM-pythia8_RunIISummer16MiniAODv2-PUMoriond17_80X_mcRun2_asymptotic_2016_TrancheIV_v6-v1/V08-00-16/merged_ntuple_8.root
p253
aV/hadoop/cms/store/group/snt/run2_moriond17/WJetsToLNu_TuneCUETP8M1_13TeV-madgraphMLM-pythia8_RunIISummer16MiniAODv2-PUMoriond17_80X_mcRun2_asymptotic_2016_TrancheIV_v6-v1/V08-00-16/merged_ntuple_80.root
p254
aV/hadoop/cms/store/group/snt/run2_moriond17/WJetsToLNu_TuneCUETP8M1_13TeV-madgraphMLM-pythia8_RunIISummer16MiniAODv2-PUMoriond17_80X_mcRun2_asymptotic_2016_TrancheIV_v6-v1/V08-00-16/merged_ntuple_81.root
p255
aV/hadoop/cms/store/group/snt/run2_moriond17/WJetsToLNu_TuneCUETP8M1_13TeV-madgraphMLM-pythia8_RunIISummer16MiniAODv2-PUMoriond17_80X_mcRun2_asymptotic_2016_TrancheIV_v6-v1/V08-00-16/merged_ntuple_82.root
p256
aV/hadoop/cms/store/group/snt/run2_moriond17/WJetsToLNu_TuneCUETP8M1_13TeV-madgraphMLM-pythia8_RunIISummer16MiniAODv2-PUMoriond17_80X_mcRun2_asymptotic_2016_TrancheIV_v6-v1/V08-00-16/merged_ntuple_83.root
p257
aV/hadoop/cms/store/group/snt/run2_moriond17/WJetsToLNu_TuneCUETP8M1_13TeV-madgraphMLM-pythia8_RunIISummer16MiniAODv2-PUMoriond17_80X_mcRun2_asymptotic_2016_TrancheIV_v6-v1/V08-00-16/merged_ntuple_84.root
p258
aV/hadoop/cms/store/group/snt/run2_moriond17/WJetsToLNu_TuneCUETP8M1_13TeV-madgraphMLM-pythia8_RunIISummer16MiniAODv2-PUMoriond17_80X_mcRun2_asymptotic_2016_TrancheIV_v6-v1/V08-00-16/merged_ntuple_85.root
p259
aV/hadoop/cms/store/group/snt/run2_moriond17/WJetsToLNu_TuneCUETP8M1_13TeV-madgraphMLM-pythia8_RunIISummer16MiniAODv2-PUMoriond17_80X_mcRun2_asymptotic_2016_TrancheIV_v6-v1/V08-00-16/merged_ntuple_86.root
p260
aV/hadoop/cms/store/group/snt/run2_moriond17/WJetsToLNu_TuneCUETP8M1_13TeV-madgraphMLM-pythia8_RunIISummer16MiniAODv2-PUMoriond17_80X_mcRun2_asymptotic_2016_TrancheIV_v6-v1/V08-00-16/merged_ntuple_87.root
p261
aV/hadoop/cms/store/group/snt/run2_moriond17/WJetsToLNu_TuneCUETP8M1_13TeV-madgraphMLM-pythia8_RunIISummer16MiniAODv2-PUMoriond17_80X_mcRun2_asymptotic_2016_TrancheIV_v6-v1/V08-00-16/merged_ntuple_88.root
p262
aV/hadoop/cms/store/group/snt/run2_moriond17/WJetsToLNu_TuneCUETP8M1_13TeV-madgraphMLM-pythia8_RunIISummer16MiniAODv2-PUMoriond17_80X_mcRun2_asymptotic_2016_TrancheIV_v6-v1/V08-00-16/merged_ntuple_89.root
p263
aV/hadoop/cms/store/group/snt/run2_moriond17/WJetsToLNu_TuneCUETP8M1_13TeV-madgraphMLM-pythia8_RunIISummer16MiniAODv2-PUMoriond17_80X_mcRun2_asymptotic_2016_TrancheIV_v6-v1/V08-00-16/merged_ntuple_9.root
p264
aV/hadoop/cms/store/group/snt/run2_moriond17/WJetsToLNu_TuneCUETP8M1_13TeV-madgraphMLM-pythia8_RunIISummer16MiniAODv2-PUMoriond17_80X_mcRun2_asymptotic_2016_TrancheIV_v6-v1/V08-00-16/merged_ntuple_90.root
p265
aV/hadoop/cms/store/group/snt/run2_moriond17/WJetsToLNu_TuneCUETP8M1_13TeV-madgraphMLM-pythia8_RunIISummer16MiniAODv2-PUMoriond17_80X_mcRun2_asymptotic_2016_TrancheIV_v6-v1/V08-00-16/merged_ntuple_91.root
p266
aV/hadoop/cms/store/group/snt/run2_moriond17/WJetsToLNu_TuneCUETP8M1_13TeV-madgraphMLM-pythia8_RunIISummer16MiniAODv2-PUMoriond17_80X_mcRun2_asymptotic_2016_TrancheIV_v6-v1/V08-00-16/merged_ntuple_92.root
p267
aV/hadoop/cms/store/group/snt/run2_moriond17/WJetsToLNu_TuneCUETP8M1_13TeV-madgraphMLM-pythia8_RunIISummer16MiniAODv2-PUMoriond17_80X_mcRun2_asymptotic_2016_TrancheIV_v6-v1/V08-00-16/merged_ntuple_93.root
p268
aV/hadoop/cms/store/group/snt/run2_moriond17/WJetsToLNu_TuneCUETP8M1_13TeV-madgraphMLM-pythia8_RunIISummer16MiniAODv2-PUMoriond17_80X_mcRun2_asymptotic_2016_TrancheIV_v6-v1/V08-00-16/merged_ntuple_94.root
p269
aV/hadoop/cms/store/group/snt/run2_moriond17/WJetsToLNu_TuneCUETP8M1_13TeV-madgraphMLM-pythia8_RunIISummer16MiniAODv2-PUMoriond17_80X_mcRun2_asymptotic_2016_TrancheIV_v6-v1/V08-00-16/merged_ntuple_95.root
p270
aV/hadoop/cms/store/group/snt/run2_moriond17/WJetsToLNu_TuneCUETP8M1_13TeV-madgraphMLM-pythia8_RunIISummer16MiniAODv2-PUMoriond17_80X_mcRun2_asymptotic_2016_TrancheIV_v6-v1/V08-00-16/merged_ntuple_96.root
p271
aV/hadoop/cms/store/group/snt/run2_moriond17/WJetsToLNu_TuneCUETP8M1_13TeV-madgraphMLM-pythia8_RunIISummer16MiniAODv2-PUMoriond17_80X_mcRun2_asymptotic_2016_TrancheIV_v6-v1/V08-00-16/merged_ntuple_97.root
p272
aV/hadoop/cms/store/group/snt/run2_moriond17/WJetsToLNu_TuneCUETP8M1_13TeV-madgraphMLM-pythia8_RunIISummer16MiniAODv2-PUMoriond17_80X_mcRun2_asymptotic_2016_TrancheIV_v6-v1/V08-00-16/merged_ntuple_98.root
p273
aV/hadoop/cms/store/group/snt/run2_moriond17/WJetsToLNu_TuneCUETP8M1_13TeV-madgraphMLM-pythia8_RunIISummer16MiniAODv2-PUMoriond17_80X_mcRun2_asymptotic_2016_TrancheIV_v6-v1/V08-00-16/merged_ntuple_99.root
p274
assS'nevents_unmerged'
p275
I0
sg101
g102
sS'postprocessing'
p276
(dp277
g93
I0
sg79
I10
sg56
I10
sg108
I0
ssS'nevents_merged'
p278
I0
sS'nevents_DAS'
p279
I0
ssS'misc'
p280
(dp281
S'rootfiles'
p282
(lp283
sS'crab_config'
p284
NsS'last_saved'
p285
I1503478644
sS'handled_more_than_1k'
p286
I00
sS'can_skip_tail'
p287
I00
sS'email_when_done'
p288
I00
sS'update_dis_when_done'
p289
I00
sS'pfx_babies'
p290
S'babies'
p291
sS'logfiles'
p292
(lp293
sS'pfx_pset'
p294
g7
sS'pfx_crab'
p295
g33
ss.