(dp0
S'sample'
p1
(dp2
S'gtag'
p3
NsS'isdata'
p4
I00
sS'dataset'
p5
S'/WJetsToLNu_HT-800To1200_TuneCUETP8M1_13TeV-madgraphMLM-pythia8/RunIISummer16MiniAODv2-PUMoriond17_80X_mcRun2_asymptotic_2016_TrancheIV_v6_ext1-v1/MINIAODSIM'
p6
sS'pset'
p7
S''
p8
sS'finaldir'
p9
g8
sS'ijob_to_nevents'
p10
(dp11
sS'basedir'
p12
S'/home/users/dpgilber/MT2AnalysisEdit/babymaker/batchsubmit/'
p13
sS'kfact'
p14
NsS'imerged_to_ijob'
p15
(dp16
S'output'
p17
(dp18
I1
(lp19
I1
aI10
aI11
aI12
aI13
aI14
aI15
aI16
aI17
aI18
aI19
aI2
aI20
aI21
aI22
aI23
aI24
aI25
asI2
(lp20
I26
aI27
aI28
aI29
aI3
aI30
aI31
aI32
aI33
aI34
aI35
aI36
aI37
aI38
aI39
aI4
aI40
aI41
asI3
(lp21
I42
aI43
aI44
aI45
aI46
aI47
aI48
aI49
aI5
aI50
aI51
aI52
aI6
aI7
aI8
aI9
assS'skim'
p22
(dp23
I1
(lp24
I1
aI10
aI11
aI12
aI13
aI14
aI15
aI16
aI17
aI18
aI19
aI2
aI20
aI21
aI22
aI23
aI24
aI25
aI26
aI27
aI28
aI29
aI3
aI30
aI31
aI32
aI33
aI34
aI35
aI36
aI37
aI38
aI39
aI4
aI40
aI41
aI42
aI43
aI44
aI45
aI46
aI47
aI48
aI49
aI5
aI50
aI51
aI52
aI6
aI7
aI8
aI9
assS'skim_rphi'
p25
(dp26
I1
(lp27
I1
aI10
aI11
aI12
aI13
aI14
aI15
aI16
aI17
aI18
aI19
aI2
aI20
aI21
aI22
aI23
aI24
aI25
aI26
aI27
aI28
aI29
aI3
aI30
aI31
aI32
aI33
aI34
aI35
aI36
aI37
aI38
aI39
aI4
aI40
aI41
aI42
aI43
aI44
aI45
aI46
aI47
aI48
aI49
aI5
aI50
aI51
aI52
aI6
aI7
aI8
aI9
asssS'crab'
p28
(dp29
S'resubmissions'
p30
I0
sS'datetime'
p31
NsS'jobs_left'
p32
(lp33
sS'requestname'
p34
S'WJetsToLNu_HT-800To1200_TuneCUETP8M1_13TeV-madgraphMLM-pythia8_RunIISummer16MiniAODv2-PUMorio_ext1'
p35
sS'taskdir'
p36
S'babies/babies_WJetsToLNu_HT-800To1200_TuneCUETP8M1_13TeV-madgraphMLM-pythia8_RunIISummer16MiniAODv2-PUMorio_ext1_AllPF'
p37
sS'outputdir'
p38
NsS'jobs_left_tail'
p39
(lp40
ssS'shortname'
p41
S'WJetsToLNu_HT-800To1200_TuneCUETP8M1_13TeV-madgraphMLM-pythia8_RunIISummer16MiniAODv2-PUMoriond17_80X_mcRun2_asymptotic_2016_TrancheIV_v6_ext1-v1'
p42
sS'xsec'
p43
NsS'type'
p44
S'BABY'
p45
sS'checks'
p46
(dp47
sS'sparms'
p48
(lp49
sS'status'
p50
S'done'
p51
sS'ijob_to_miniaod'
p52
(dp53
sS'cms3tag'
p54
VCMS3_V08-00-16
p55
sS'specialdir'
p56
g8
sS'user'
p57
S'dpgilber'
p58
sS'efact'
p59
NsS'baby'
p60
(dp61
S'condor_done'
p62
I52
sS'outputdir_pattern'
p63
S'/hadoop/cms/store/user/dpgilber/AutoTwopler_babies/${ANALYSIS}_${BABY_TAG}/${SHORTNAME}/'
p64
sS'user_executable'
p65
S'/home/users/dpgilber/MT2AnalysisEdit/babymaker/batchsubmit/job_input/wrapper_auto.sh'
p66
sg5
g6
sS'scramarch'
p67
S'slc6_amd64_gcc530'
p68
sS'sweepRoot_script'
p69
S'/home/users/dpgilber/MT2AnalysisEdit/babymaker/batchsubmit//babies/sweepRoot.sh'
p70
sS'executable_script'
p71
S'/home/users/dpgilber/MT2AnalysisEdit/babymaker/batchsubmit//babies/baby_ducks.sh'
p72
sg9
S'/hadoop/cms/store/user/dpgilber/AutoTwopler_babies/MT2_AllPF/WJetsToLNu_HT-800To1200_TuneCUETP8M1_13TeV-madgraphMLM-pythia8_RunIISummer16MiniAODv2-PUMoriond17_80X_mcRun2_asymptotic_2016_TrancheIV_v6_ext1-v1/'
p73
sS'total'
p74
I52
sS'nevents'
p75
I-1
sS'output_names_nosplit'
p76
S'output.root,skim.root,skim_rphi.root'
p77
sS'imerged'
p78
(lp79
I1
aI10
aI11
aI12
aI13
aI14
aI15
aI16
aI17
aI18
aI19
aI2
aI20
aI21
aI22
aI23
aI24
aI25
aI26
aI27
aI28
aI29
aI3
aI30
aI31
aI32
aI33
aI34
aI35
aI36
aI37
aI38
aI39
aI4
aI40
aI41
aI42
aI43
aI44
aI45
aI46
aI47
aI48
aI49
aI5
aI50
aI51
aI52
aI6
aI7
aI8
aI9
asS'sweepRooted'
p80
I52
sS'exe_args'
p81
(lp82
g8
asS'merged_dir'
p83
S'/hadoop/cms/store/user/dpgilber/AutoTwopler_babies/merged//MT2/AllPF/'
p84
sS'user_package'
p85
S'/home/users/dpgilber/MT2AnalysisEdit/babymaker/batchsubmit/job_input/package.tar.gz'
p86
sS'exe_args_nosplit'
p87
g8
sS'running'
p88
I0
sS'output_names'
p89
(lp90
S'output.root'
p91
aS'skim.root'
p92
aS'skim_rphi.root'
p93
asS'package'
p94
S'/home/users/dpgilber/MT2AnalysisEdit/babymaker/batchsubmit//babies/package.tar.gz'
p95
sS'cmsswver'
p96
S'CMSSW_8_0_21'
p97
sS'have_set_inputs'
p98
I01
sS'analysis'
p99
S'MT2'
p100
sS'merging_script'
p101
S'/home/users/dpgilber/MT2AnalysisEdit/babymaker/batchsubmit//babies/merging_script.sh'
p102
sS'idle'
p103
I0
sS'baby_tag'
p104
S'AllPF'
p105
sS'imerged_swept'
p106
(lp107
I52
aI33
aI35
aI36
aI18
aI14
aI16
aI17
aI50
aI51
aI22
aI23
aI25
aI27
aI31
aI1
aI3
aI4
aI5
aI6
aI7
aI8
aI9
aI10
aI11
aI13
aI15
aI19
aI20
aI24
aI26
aI28
aI29
aI30
aI32
aI34
aI37
aI38
aI39
aI40
aI41
aI43
aI44
aI45
aI46
aI47
aI48
aI49
aI2
aI42
aI12
aI21
asS'input_filenames'
p108
(lp109
V/hadoop/cms/store/group/snt/run2_moriond17/WJetsToLNu_HT-800To1200_TuneCUETP8M1_13TeV-madgraphMLM-pythia8_RunIISummer16MiniAODv2-PUMoriond17_80X_mcRun2_asymptotic_2016_TrancheIV_v6_ext1-v1/V08-00-16/merged_ntuple_1.root
p110
aV/hadoop/cms/store/group/snt/run2_moriond17/WJetsToLNu_HT-800To1200_TuneCUETP8M1_13TeV-madgraphMLM-pythia8_RunIISummer16MiniAODv2-PUMoriond17_80X_mcRun2_asymptotic_2016_TrancheIV_v6_ext1-v1/V08-00-16/merged_ntuple_10.root
p111
aV/hadoop/cms/store/group/snt/run2_moriond17/WJetsToLNu_HT-800To1200_TuneCUETP8M1_13TeV-madgraphMLM-pythia8_RunIISummer16MiniAODv2-PUMoriond17_80X_mcRun2_asymptotic_2016_TrancheIV_v6_ext1-v1/V08-00-16/merged_ntuple_11.root
p112
aV/hadoop/cms/store/group/snt/run2_moriond17/WJetsToLNu_HT-800To1200_TuneCUETP8M1_13TeV-madgraphMLM-pythia8_RunIISummer16MiniAODv2-PUMoriond17_80X_mcRun2_asymptotic_2016_TrancheIV_v6_ext1-v1/V08-00-16/merged_ntuple_12.root
p113
aV/hadoop/cms/store/group/snt/run2_moriond17/WJetsToLNu_HT-800To1200_TuneCUETP8M1_13TeV-madgraphMLM-pythia8_RunIISummer16MiniAODv2-PUMoriond17_80X_mcRun2_asymptotic_2016_TrancheIV_v6_ext1-v1/V08-00-16/merged_ntuple_13.root
p114
aV/hadoop/cms/store/group/snt/run2_moriond17/WJetsToLNu_HT-800To1200_TuneCUETP8M1_13TeV-madgraphMLM-pythia8_RunIISummer16MiniAODv2-PUMoriond17_80X_mcRun2_asymptotic_2016_TrancheIV_v6_ext1-v1/V08-00-16/merged_ntuple_14.root
p115
aV/hadoop/cms/store/group/snt/run2_moriond17/WJetsToLNu_HT-800To1200_TuneCUETP8M1_13TeV-madgraphMLM-pythia8_RunIISummer16MiniAODv2-PUMoriond17_80X_mcRun2_asymptotic_2016_TrancheIV_v6_ext1-v1/V08-00-16/merged_ntuple_15.root
p116
aV/hadoop/cms/store/group/snt/run2_moriond17/WJetsToLNu_HT-800To1200_TuneCUETP8M1_13TeV-madgraphMLM-pythia8_RunIISummer16MiniAODv2-PUMoriond17_80X_mcRun2_asymptotic_2016_TrancheIV_v6_ext1-v1/V08-00-16/merged_ntuple_16.root
p117
aV/hadoop/cms/store/group/snt/run2_moriond17/WJetsToLNu_HT-800To1200_TuneCUETP8M1_13TeV-madgraphMLM-pythia8_RunIISummer16MiniAODv2-PUMoriond17_80X_mcRun2_asymptotic_2016_TrancheIV_v6_ext1-v1/V08-00-16/merged_ntuple_17.root
p118
aV/hadoop/cms/store/group/snt/run2_moriond17/WJetsToLNu_HT-800To1200_TuneCUETP8M1_13TeV-madgraphMLM-pythia8_RunIISummer16MiniAODv2-PUMoriond17_80X_mcRun2_asymptotic_2016_TrancheIV_v6_ext1-v1/V08-00-16/merged_ntuple_18.root
p119
aV/hadoop/cms/store/group/snt/run2_moriond17/WJetsToLNu_HT-800To1200_TuneCUETP8M1_13TeV-madgraphMLM-pythia8_RunIISummer16MiniAODv2-PUMoriond17_80X_mcRun2_asymptotic_2016_TrancheIV_v6_ext1-v1/V08-00-16/merged_ntuple_19.root
p120
aV/hadoop/cms/store/group/snt/run2_moriond17/WJetsToLNu_HT-800To1200_TuneCUETP8M1_13TeV-madgraphMLM-pythia8_RunIISummer16MiniAODv2-PUMoriond17_80X_mcRun2_asymptotic_2016_TrancheIV_v6_ext1-v1/V08-00-16/merged_ntuple_2.root
p121
aV/hadoop/cms/store/group/snt/run2_moriond17/WJetsToLNu_HT-800To1200_TuneCUETP8M1_13TeV-madgraphMLM-pythia8_RunIISummer16MiniAODv2-PUMoriond17_80X_mcRun2_asymptotic_2016_TrancheIV_v6_ext1-v1/V08-00-16/merged_ntuple_20.root
p122
aV/hadoop/cms/store/group/snt/run2_moriond17/WJetsToLNu_HT-800To1200_TuneCUETP8M1_13TeV-madgraphMLM-pythia8_RunIISummer16MiniAODv2-PUMoriond17_80X_mcRun2_asymptotic_2016_TrancheIV_v6_ext1-v1/V08-00-16/merged_ntuple_21.root
p123
aV/hadoop/cms/store/group/snt/run2_moriond17/WJetsToLNu_HT-800To1200_TuneCUETP8M1_13TeV-madgraphMLM-pythia8_RunIISummer16MiniAODv2-PUMoriond17_80X_mcRun2_asymptotic_2016_TrancheIV_v6_ext1-v1/V08-00-16/merged_ntuple_22.root
p124
aV/hadoop/cms/store/group/snt/run2_moriond17/WJetsToLNu_HT-800To1200_TuneCUETP8M1_13TeV-madgraphMLM-pythia8_RunIISummer16MiniAODv2-PUMoriond17_80X_mcRun2_asymptotic_2016_TrancheIV_v6_ext1-v1/V08-00-16/merged_ntuple_23.root
p125
aV/hadoop/cms/store/group/snt/run2_moriond17/WJetsToLNu_HT-800To1200_TuneCUETP8M1_13TeV-madgraphMLM-pythia8_RunIISummer16MiniAODv2-PUMoriond17_80X_mcRun2_asymptotic_2016_TrancheIV_v6_ext1-v1/V08-00-16/merged_ntuple_24.root
p126
aV/hadoop/cms/store/group/snt/run2_moriond17/WJetsToLNu_HT-800To1200_TuneCUETP8M1_13TeV-madgraphMLM-pythia8_RunIISummer16MiniAODv2-PUMoriond17_80X_mcRun2_asymptotic_2016_TrancheIV_v6_ext1-v1/V08-00-16/merged_ntuple_25.root
p127
aV/hadoop/cms/store/group/snt/run2_moriond17/WJetsToLNu_HT-800To1200_TuneCUETP8M1_13TeV-madgraphMLM-pythia8_RunIISummer16MiniAODv2-PUMoriond17_80X_mcRun2_asymptotic_2016_TrancheIV_v6_ext1-v1/V08-00-16/merged_ntuple_26.root
p128
aV/hadoop/cms/store/group/snt/run2_moriond17/WJetsToLNu_HT-800To1200_TuneCUETP8M1_13TeV-madgraphMLM-pythia8_RunIISummer16MiniAODv2-PUMoriond17_80X_mcRun2_asymptotic_2016_TrancheIV_v6_ext1-v1/V08-00-16/merged_ntuple_27.root
p129
aV/hadoop/cms/store/group/snt/run2_moriond17/WJetsToLNu_HT-800To1200_TuneCUETP8M1_13TeV-madgraphMLM-pythia8_RunIISummer16MiniAODv2-PUMoriond17_80X_mcRun2_asymptotic_2016_TrancheIV_v6_ext1-v1/V08-00-16/merged_ntuple_28.root
p130
aV/hadoop/cms/store/group/snt/run2_moriond17/WJetsToLNu_HT-800To1200_TuneCUETP8M1_13TeV-madgraphMLM-pythia8_RunIISummer16MiniAODv2-PUMoriond17_80X_mcRun2_asymptotic_2016_TrancheIV_v6_ext1-v1/V08-00-16/merged_ntuple_29.root
p131
aV/hadoop/cms/store/group/snt/run2_moriond17/WJetsToLNu_HT-800To1200_TuneCUETP8M1_13TeV-madgraphMLM-pythia8_RunIISummer16MiniAODv2-PUMoriond17_80X_mcRun2_asymptotic_2016_TrancheIV_v6_ext1-v1/V08-00-16/merged_ntuple_3.root
p132
aV/hadoop/cms/store/group/snt/run2_moriond17/WJetsToLNu_HT-800To1200_TuneCUETP8M1_13TeV-madgraphMLM-pythia8_RunIISummer16MiniAODv2-PUMoriond17_80X_mcRun2_asymptotic_2016_TrancheIV_v6_ext1-v1/V08-00-16/merged_ntuple_30.root
p133
aV/hadoop/cms/store/group/snt/run2_moriond17/WJetsToLNu_HT-800To1200_TuneCUETP8M1_13TeV-madgraphMLM-pythia8_RunIISummer16MiniAODv2-PUMoriond17_80X_mcRun2_asymptotic_2016_TrancheIV_v6_ext1-v1/V08-00-16/merged_ntuple_31.root
p134
aV/hadoop/cms/store/group/snt/run2_moriond17/WJetsToLNu_HT-800To1200_TuneCUETP8M1_13TeV-madgraphMLM-pythia8_RunIISummer16MiniAODv2-PUMoriond17_80X_mcRun2_asymptotic_2016_TrancheIV_v6_ext1-v1/V08-00-16/merged_ntuple_32.root
p135
aV/hadoop/cms/store/group/snt/run2_moriond17/WJetsToLNu_HT-800To1200_TuneCUETP8M1_13TeV-madgraphMLM-pythia8_RunIISummer16MiniAODv2-PUMoriond17_80X_mcRun2_asymptotic_2016_TrancheIV_v6_ext1-v1/V08-00-16/merged_ntuple_33.root
p136
aV/hadoop/cms/store/group/snt/run2_moriond17/WJetsToLNu_HT-800To1200_TuneCUETP8M1_13TeV-madgraphMLM-pythia8_RunIISummer16MiniAODv2-PUMoriond17_80X_mcRun2_asymptotic_2016_TrancheIV_v6_ext1-v1/V08-00-16/merged_ntuple_34.root
p137
aV/hadoop/cms/store/group/snt/run2_moriond17/WJetsToLNu_HT-800To1200_TuneCUETP8M1_13TeV-madgraphMLM-pythia8_RunIISummer16MiniAODv2-PUMoriond17_80X_mcRun2_asymptotic_2016_TrancheIV_v6_ext1-v1/V08-00-16/merged_ntuple_35.root
p138
aV/hadoop/cms/store/group/snt/run2_moriond17/WJetsToLNu_HT-800To1200_TuneCUETP8M1_13TeV-madgraphMLM-pythia8_RunIISummer16MiniAODv2-PUMoriond17_80X_mcRun2_asymptotic_2016_TrancheIV_v6_ext1-v1/V08-00-16/merged_ntuple_36.root
p139
aV/hadoop/cms/store/group/snt/run2_moriond17/WJetsToLNu_HT-800To1200_TuneCUETP8M1_13TeV-madgraphMLM-pythia8_RunIISummer16MiniAODv2-PUMoriond17_80X_mcRun2_asymptotic_2016_TrancheIV_v6_ext1-v1/V08-00-16/merged_ntuple_37.root
p140
aV/hadoop/cms/store/group/snt/run2_moriond17/WJetsToLNu_HT-800To1200_TuneCUETP8M1_13TeV-madgraphMLM-pythia8_RunIISummer16MiniAODv2-PUMoriond17_80X_mcRun2_asymptotic_2016_TrancheIV_v6_ext1-v1/V08-00-16/merged_ntuple_38.root
p141
aV/hadoop/cms/store/group/snt/run2_moriond17/WJetsToLNu_HT-800To1200_TuneCUETP8M1_13TeV-madgraphMLM-pythia8_RunIISummer16MiniAODv2-PUMoriond17_80X_mcRun2_asymptotic_2016_TrancheIV_v6_ext1-v1/V08-00-16/merged_ntuple_39.root
p142
aV/hadoop/cms/store/group/snt/run2_moriond17/WJetsToLNu_HT-800To1200_TuneCUETP8M1_13TeV-madgraphMLM-pythia8_RunIISummer16MiniAODv2-PUMoriond17_80X_mcRun2_asymptotic_2016_TrancheIV_v6_ext1-v1/V08-00-16/merged_ntuple_4.root
p143
aV/hadoop/cms/store/group/snt/run2_moriond17/WJetsToLNu_HT-800To1200_TuneCUETP8M1_13TeV-madgraphMLM-pythia8_RunIISummer16MiniAODv2-PUMoriond17_80X_mcRun2_asymptotic_2016_TrancheIV_v6_ext1-v1/V08-00-16/merged_ntuple_40.root
p144
aV/hadoop/cms/store/group/snt/run2_moriond17/WJetsToLNu_HT-800To1200_TuneCUETP8M1_13TeV-madgraphMLM-pythia8_RunIISummer16MiniAODv2-PUMoriond17_80X_mcRun2_asymptotic_2016_TrancheIV_v6_ext1-v1/V08-00-16/merged_ntuple_41.root
p145
aV/hadoop/cms/store/group/snt/run2_moriond17/WJetsToLNu_HT-800To1200_TuneCUETP8M1_13TeV-madgraphMLM-pythia8_RunIISummer16MiniAODv2-PUMoriond17_80X_mcRun2_asymptotic_2016_TrancheIV_v6_ext1-v1/V08-00-16/merged_ntuple_42.root
p146
aV/hadoop/cms/store/group/snt/run2_moriond17/WJetsToLNu_HT-800To1200_TuneCUETP8M1_13TeV-madgraphMLM-pythia8_RunIISummer16MiniAODv2-PUMoriond17_80X_mcRun2_asymptotic_2016_TrancheIV_v6_ext1-v1/V08-00-16/merged_ntuple_43.root
p147
aV/hadoop/cms/store/group/snt/run2_moriond17/WJetsToLNu_HT-800To1200_TuneCUETP8M1_13TeV-madgraphMLM-pythia8_RunIISummer16MiniAODv2-PUMoriond17_80X_mcRun2_asymptotic_2016_TrancheIV_v6_ext1-v1/V08-00-16/merged_ntuple_44.root
p148
aV/hadoop/cms/store/group/snt/run2_moriond17/WJetsToLNu_HT-800To1200_TuneCUETP8M1_13TeV-madgraphMLM-pythia8_RunIISummer16MiniAODv2-PUMoriond17_80X_mcRun2_asymptotic_2016_TrancheIV_v6_ext1-v1/V08-00-16/merged_ntuple_45.root
p149
aV/hadoop/cms/store/group/snt/run2_moriond17/WJetsToLNu_HT-800To1200_TuneCUETP8M1_13TeV-madgraphMLM-pythia8_RunIISummer16MiniAODv2-PUMoriond17_80X_mcRun2_asymptotic_2016_TrancheIV_v6_ext1-v1/V08-00-16/merged_ntuple_46.root
p150
aV/hadoop/cms/store/group/snt/run2_moriond17/WJetsToLNu_HT-800To1200_TuneCUETP8M1_13TeV-madgraphMLM-pythia8_RunIISummer16MiniAODv2-PUMoriond17_80X_mcRun2_asymptotic_2016_TrancheIV_v6_ext1-v1/V08-00-16/merged_ntuple_47.root
p151
aV/hadoop/cms/store/group/snt/run2_moriond17/WJetsToLNu_HT-800To1200_TuneCUETP8M1_13TeV-madgraphMLM-pythia8_RunIISummer16MiniAODv2-PUMoriond17_80X_mcRun2_asymptotic_2016_TrancheIV_v6_ext1-v1/V08-00-16/merged_ntuple_48.root
p152
aV/hadoop/cms/store/group/snt/run2_moriond17/WJetsToLNu_HT-800To1200_TuneCUETP8M1_13TeV-madgraphMLM-pythia8_RunIISummer16MiniAODv2-PUMoriond17_80X_mcRun2_asymptotic_2016_TrancheIV_v6_ext1-v1/V08-00-16/merged_ntuple_49.root
p153
aV/hadoop/cms/store/group/snt/run2_moriond17/WJetsToLNu_HT-800To1200_TuneCUETP8M1_13TeV-madgraphMLM-pythia8_RunIISummer16MiniAODv2-PUMoriond17_80X_mcRun2_asymptotic_2016_TrancheIV_v6_ext1-v1/V08-00-16/merged_ntuple_5.root
p154
aV/hadoop/cms/store/group/snt/run2_moriond17/WJetsToLNu_HT-800To1200_TuneCUETP8M1_13TeV-madgraphMLM-pythia8_RunIISummer16MiniAODv2-PUMoriond17_80X_mcRun2_asymptotic_2016_TrancheIV_v6_ext1-v1/V08-00-16/merged_ntuple_50.root
p155
aV/hadoop/cms/store/group/snt/run2_moriond17/WJetsToLNu_HT-800To1200_TuneCUETP8M1_13TeV-madgraphMLM-pythia8_RunIISummer16MiniAODv2-PUMoriond17_80X_mcRun2_asymptotic_2016_TrancheIV_v6_ext1-v1/V08-00-16/merged_ntuple_51.root
p156
aV/hadoop/cms/store/group/snt/run2_moriond17/WJetsToLNu_HT-800To1200_TuneCUETP8M1_13TeV-madgraphMLM-pythia8_RunIISummer16MiniAODv2-PUMoriond17_80X_mcRun2_asymptotic_2016_TrancheIV_v6_ext1-v1/V08-00-16/merged_ntuple_52.root
p157
aV/hadoop/cms/store/group/snt/run2_moriond17/WJetsToLNu_HT-800To1200_TuneCUETP8M1_13TeV-madgraphMLM-pythia8_RunIISummer16MiniAODv2-PUMoriond17_80X_mcRun2_asymptotic_2016_TrancheIV_v6_ext1-v1/V08-00-16/merged_ntuple_6.root
p158
aV/hadoop/cms/store/group/snt/run2_moriond17/WJetsToLNu_HT-800To1200_TuneCUETP8M1_13TeV-madgraphMLM-pythia8_RunIISummer16MiniAODv2-PUMoriond17_80X_mcRun2_asymptotic_2016_TrancheIV_v6_ext1-v1/V08-00-16/merged_ntuple_7.root
p159
aV/hadoop/cms/store/group/snt/run2_moriond17/WJetsToLNu_HT-800To1200_TuneCUETP8M1_13TeV-madgraphMLM-pythia8_RunIISummer16MiniAODv2-PUMoriond17_80X_mcRun2_asymptotic_2016_TrancheIV_v6_ext1-v1/V08-00-16/merged_ntuple_8.root
p160
aV/hadoop/cms/store/group/snt/run2_moriond17/WJetsToLNu_HT-800To1200_TuneCUETP8M1_13TeV-madgraphMLM-pythia8_RunIISummer16MiniAODv2-PUMoriond17_80X_mcRun2_asymptotic_2016_TrancheIV_v6_ext1-v1/V08-00-16/merged_ntuple_9.root
p161
assS'nevents_unmerged'
p162
I0
sg96
g97
sS'postprocessing'
p163
(dp164
g88
I0
sg74
I5
sg51
I5
sg103
I0
ssS'nevents_merged'
p165
I0
sS'nevents_DAS'
p166
I0
ssS'misc'
p167
(dp168
S'rootfiles'
p169
(lp170
sS'crab_config'
p171
NsS'last_saved'
p172
I1503478644
sS'handled_more_than_1k'
p173
I00
sS'can_skip_tail'
p174
I00
sS'email_when_done'
p175
I00
sS'update_dis_when_done'
p176
I00
sS'pfx_babies'
p177
S'babies'
p178
sS'logfiles'
p179
(lp180
sS'pfx_pset'
p181
g7
sS'pfx_crab'
p182
g28
ss.