(dp0
S'sample'
p1
(dp2
S'gtag'
p3
NsS'isdata'
p4
I00
sS'dataset'
p5
S'/TTJets_SingleLeptFromT_TuneCUETP8M1_13TeV-madgraphMLM-pythia8/RunIISummer16MiniAODv2-PUMoriond17_80X_mcRun2_asymptotic_2016_TrancheIV_v6-v1/MINIAODSIM'
p6
sS'pset'
p7
S''
p8
sS'finaldir'
p9
g8
sS'ijob_to_nevents'
p10
(dp11
sS'basedir'
p12
S'/home/users/dpgilber/MT2AnalysisEdit/babymaker/batchsubmit/'
p13
sS'kfact'
p14
NsS'imerged_to_ijob'
p15
(dp16
S'output'
p17
(dp18
I1
(lp19
I1
aI10
aI11
aI12
aI13
aI14
aI15
aI16
aI17
aI18
aI19
aI2
aI20
aI21
asI2
(lp20
I22
aI23
aI24
aI25
aI26
aI27
aI28
aI29
aI3
aI30
aI31
aI32
aI33
aI34
asI3
(lp21
I35
aI36
aI37
aI38
aI39
aI4
aI40
aI41
aI42
aI43
aI44
aI45
aI46
asI4
(lp22
I47
aI48
aI49
aI5
aI50
aI51
aI52
aI53
aI54
aI55
aI56
aI57
aI58
aI59
asI5
(lp23
I6
aI60
aI61
aI62
aI63
aI64
aI65
aI66
aI67
aI68
aI69
aI7
aI70
asI6
(lp24
I71
aI72
aI73
aI74
aI75
aI8
aI9
assS'skim'
p25
(dp26
I1
(lp27
I1
aI10
aI11
aI12
aI13
aI14
aI15
aI16
aI17
aI18
aI19
aI2
aI20
aI21
aI22
aI23
aI24
aI25
aI26
aI27
aI28
aI29
aI3
aI30
aI31
aI32
aI33
aI34
aI35
aI36
aI37
aI38
aI39
aI4
aI40
aI41
aI42
aI43
aI44
aI45
aI46
aI47
aI48
aI49
aI5
aI50
aI51
aI52
aI53
aI54
aI55
aI56
aI57
aI58
aI59
aI6
aI60
aI61
aI62
aI63
aI64
aI65
aI66
aI67
aI68
aI69
aI7
aI70
aI71
aI72
aI73
aI74
aI75
aI8
aI9
assS'skim_rphi'
p28
(dp29
I1
(lp30
I1
aI10
aI11
aI12
aI13
aI14
aI15
aI16
aI17
aI18
aI19
aI2
aI20
aI21
aI22
aI23
aI24
aI25
aI26
aI27
aI28
aI29
aI3
aI30
aI31
aI32
aI33
aI34
aI35
aI36
aI37
aI38
aI39
aI4
aI40
aI41
aI42
aI43
aI44
aI45
aI46
aI47
aI48
aI49
aI5
aI50
aI51
aI52
aI53
aI54
aI55
aI56
aI57
aI58
aI59
aI6
aI60
aI61
aI62
aI63
aI64
aI65
aI66
aI67
aI68
aI69
aI7
aI70
aI71
aI72
aI73
aI74
aI75
aI8
aI9
asssS'crab'
p31
(dp32
S'resubmissions'
p33
I0
sS'datetime'
p34
NsS'jobs_left'
p35
(lp36
sS'requestname'
p37
S'TTJets_SingleLeptFromT_TuneCUETP8M1_13TeV-madgraphMLM-pythia8_RunIISummer16MiniAODv2-PUMoriond17_80'
p38
sS'taskdir'
p39
S'babies/babies_TTJets_SingleLeptFromT_TuneCUETP8M1_13TeV-madgraphMLM-pythia8_RunIISummer16MiniAODv2-PUMoriond17_80_AllPF'
p40
sS'outputdir'
p41
NsS'jobs_left_tail'
p42
(lp43
ssS'shortname'
p44
S'TTJets_SingleLeptFromT_TuneCUETP8M1_13TeV-madgraphMLM-pythia8_RunIISummer16MiniAODv2-PUMoriond17_80X_mcRun2_asymptotic_2016_TrancheIV_v6-v1'
p45
sS'xsec'
p46
NsS'type'
p47
S'BABY'
p48
sS'checks'
p49
(dp50
sS'sparms'
p51
(lp52
sS'status'
p53
S'done'
p54
sS'ijob_to_miniaod'
p55
(dp56
sS'cms3tag'
p57
VCMS3_V08-00-16
p58
sS'specialdir'
p59
g8
sS'user'
p60
S'dpgilber'
p61
sS'efact'
p62
NsS'baby'
p63
(dp64
S'condor_done'
p65
I75
sS'outputdir_pattern'
p66
S'/hadoop/cms/store/user/dpgilber/AutoTwopler_babies/${ANALYSIS}_${BABY_TAG}/${SHORTNAME}/'
p67
sS'user_executable'
p68
S'/home/users/dpgilber/MT2AnalysisEdit/babymaker/batchsubmit/job_input/wrapper_auto.sh'
p69
sg5
g6
sS'scramarch'
p70
S'slc6_amd64_gcc530'
p71
sS'sweepRoot_script'
p72
S'/home/users/dpgilber/MT2AnalysisEdit/babymaker/batchsubmit//babies/sweepRoot.sh'
p73
sS'executable_script'
p74
S'/home/users/dpgilber/MT2AnalysisEdit/babymaker/batchsubmit//babies/baby_ducks.sh'
p75
sg9
S'/hadoop/cms/store/user/dpgilber/AutoTwopler_babies/MT2_AllPF/TTJets_SingleLeptFromT_TuneCUETP8M1_13TeV-madgraphMLM-pythia8_RunIISummer16MiniAODv2-PUMoriond17_80X_mcRun2_asymptotic_2016_TrancheIV_v6-v1/'
p76
sS'total'
p77
I75
sS'nevents'
p78
I-1
sS'output_names_nosplit'
p79
S'output.root,skim.root,skim_rphi.root'
p80
sS'imerged'
p81
(lp82
I1
aI10
aI11
aI12
aI13
aI14
aI15
aI16
aI17
aI18
aI19
aI2
aI20
aI21
aI22
aI23
aI24
aI25
aI26
aI27
aI28
aI29
aI3
aI30
aI31
aI32
aI33
aI34
aI35
aI36
aI37
aI38
aI39
aI4
aI40
aI41
aI42
aI43
aI44
aI45
aI46
aI47
aI48
aI49
aI5
aI50
aI51
aI52
aI53
aI54
aI55
aI56
aI57
aI58
aI59
aI6
aI60
aI61
aI62
aI63
aI64
aI65
aI66
aI67
aI68
aI69
aI7
aI70
aI71
aI72
aI73
aI74
aI75
aI8
aI9
asS'sweepRooted'
p83
I75
sS'exe_args'
p84
(lp85
g8
asS'merged_dir'
p86
S'/hadoop/cms/store/user/dpgilber/AutoTwopler_babies/merged//MT2/AllPF/'
p87
sS'user_package'
p88
S'/home/users/dpgilber/MT2AnalysisEdit/babymaker/batchsubmit/job_input/package.tar.gz'
p89
sS'exe_args_nosplit'
p90
g8
sS'running'
p91
I0
sS'output_names'
p92
(lp93
S'output.root'
p94
aS'skim.root'
p95
aS'skim_rphi.root'
p96
asS'package'
p97
S'/home/users/dpgilber/MT2AnalysisEdit/babymaker/batchsubmit//babies/package.tar.gz'
p98
sS'cmsswver'
p99
S'CMSSW_8_0_21'
p100
sS'have_set_inputs'
p101
I01
sS'analysis'
p102
S'MT2'
p103
sS'merging_script'
p104
S'/home/users/dpgilber/MT2AnalysisEdit/babymaker/batchsubmit//babies/merging_script.sh'
p105
sS'idle'
p106
I0
sS'baby_tag'
p107
S'AllPF'
p108
sS'imerged_swept'
p109
(lp110
I66
aI13
aI50
aI52
aI21
aI25
aI32
aI5
aI39
aI73
aI75
aI12
aI45
aI17
aI18
aI19
aI23
aI57
aI31
aI28
aI63
aI3
aI4
aI6
aI7
aI9
aI11
aI14
aI16
aI22
aI26
aI27
aI29
aI30
aI33
aI35
aI36
aI38
aI40
aI41
aI42
aI47
aI48
aI49
aI53
aI54
aI61
aI68
aI71
aI72
aI74
aI1
aI2
aI8
aI15
aI20
aI24
aI34
aI37
aI43
aI44
aI46
aI51
aI55
aI56
aI58
aI60
aI62
aI64
aI65
aI67
aI69
aI70
aI59
aI10
asS'input_filenames'
p111
(lp112
V/hadoop/cms/store/group/snt/run2_moriond17/TTJets_SingleLeptFromT_TuneCUETP8M1_13TeV-madgraphMLM-pythia8_RunIISummer16MiniAODv2-PUMoriond17_80X_mcRun2_asymptotic_2016_TrancheIV_v6-v1/V08-00-16/merged_ntuple_1.root
p113
aV/hadoop/cms/store/group/snt/run2_moriond17/TTJets_SingleLeptFromT_TuneCUETP8M1_13TeV-madgraphMLM-pythia8_RunIISummer16MiniAODv2-PUMoriond17_80X_mcRun2_asymptotic_2016_TrancheIV_v6-v1/V08-00-16/merged_ntuple_10.root
p114
aV/hadoop/cms/store/group/snt/run2_moriond17/TTJets_SingleLeptFromT_TuneCUETP8M1_13TeV-madgraphMLM-pythia8_RunIISummer16MiniAODv2-PUMoriond17_80X_mcRun2_asymptotic_2016_TrancheIV_v6-v1/V08-00-16/merged_ntuple_11.root
p115
aV/hadoop/cms/store/group/snt/run2_moriond17/TTJets_SingleLeptFromT_TuneCUETP8M1_13TeV-madgraphMLM-pythia8_RunIISummer16MiniAODv2-PUMoriond17_80X_mcRun2_asymptotic_2016_TrancheIV_v6-v1/V08-00-16/merged_ntuple_12.root
p116
aV/hadoop/cms/store/group/snt/run2_moriond17/TTJets_SingleLeptFromT_TuneCUETP8M1_13TeV-madgraphMLM-pythia8_RunIISummer16MiniAODv2-PUMoriond17_80X_mcRun2_asymptotic_2016_TrancheIV_v6-v1/V08-00-16/merged_ntuple_13.root
p117
aV/hadoop/cms/store/group/snt/run2_moriond17/TTJets_SingleLeptFromT_TuneCUETP8M1_13TeV-madgraphMLM-pythia8_RunIISummer16MiniAODv2-PUMoriond17_80X_mcRun2_asymptotic_2016_TrancheIV_v6-v1/V08-00-16/merged_ntuple_14.root
p118
aV/hadoop/cms/store/group/snt/run2_moriond17/TTJets_SingleLeptFromT_TuneCUETP8M1_13TeV-madgraphMLM-pythia8_RunIISummer16MiniAODv2-PUMoriond17_80X_mcRun2_asymptotic_2016_TrancheIV_v6-v1/V08-00-16/merged_ntuple_15.root
p119
aV/hadoop/cms/store/group/snt/run2_moriond17/TTJets_SingleLeptFromT_TuneCUETP8M1_13TeV-madgraphMLM-pythia8_RunIISummer16MiniAODv2-PUMoriond17_80X_mcRun2_asymptotic_2016_TrancheIV_v6-v1/V08-00-16/merged_ntuple_16.root
p120
aV/hadoop/cms/store/group/snt/run2_moriond17/TTJets_SingleLeptFromT_TuneCUETP8M1_13TeV-madgraphMLM-pythia8_RunIISummer16MiniAODv2-PUMoriond17_80X_mcRun2_asymptotic_2016_TrancheIV_v6-v1/V08-00-16/merged_ntuple_17.root
p121
aV/hadoop/cms/store/group/snt/run2_moriond17/TTJets_SingleLeptFromT_TuneCUETP8M1_13TeV-madgraphMLM-pythia8_RunIISummer16MiniAODv2-PUMoriond17_80X_mcRun2_asymptotic_2016_TrancheIV_v6-v1/V08-00-16/merged_ntuple_18.root
p122
aV/hadoop/cms/store/group/snt/run2_moriond17/TTJets_SingleLeptFromT_TuneCUETP8M1_13TeV-madgraphMLM-pythia8_RunIISummer16MiniAODv2-PUMoriond17_80X_mcRun2_asymptotic_2016_TrancheIV_v6-v1/V08-00-16/merged_ntuple_19.root
p123
aV/hadoop/cms/store/group/snt/run2_moriond17/TTJets_SingleLeptFromT_TuneCUETP8M1_13TeV-madgraphMLM-pythia8_RunIISummer16MiniAODv2-PUMoriond17_80X_mcRun2_asymptotic_2016_TrancheIV_v6-v1/V08-00-16/merged_ntuple_2.root
p124
aV/hadoop/cms/store/group/snt/run2_moriond17/TTJets_SingleLeptFromT_TuneCUETP8M1_13TeV-madgraphMLM-pythia8_RunIISummer16MiniAODv2-PUMoriond17_80X_mcRun2_asymptotic_2016_TrancheIV_v6-v1/V08-00-16/merged_ntuple_20.root
p125
aV/hadoop/cms/store/group/snt/run2_moriond17/TTJets_SingleLeptFromT_TuneCUETP8M1_13TeV-madgraphMLM-pythia8_RunIISummer16MiniAODv2-PUMoriond17_80X_mcRun2_asymptotic_2016_TrancheIV_v6-v1/V08-00-16/merged_ntuple_21.root
p126
aV/hadoop/cms/store/group/snt/run2_moriond17/TTJets_SingleLeptFromT_TuneCUETP8M1_13TeV-madgraphMLM-pythia8_RunIISummer16MiniAODv2-PUMoriond17_80X_mcRun2_asymptotic_2016_TrancheIV_v6-v1/V08-00-16/merged_ntuple_22.root
p127
aV/hadoop/cms/store/group/snt/run2_moriond17/TTJets_SingleLeptFromT_TuneCUETP8M1_13TeV-madgraphMLM-pythia8_RunIISummer16MiniAODv2-PUMoriond17_80X_mcRun2_asymptotic_2016_TrancheIV_v6-v1/V08-00-16/merged_ntuple_23.root
p128
aV/hadoop/cms/store/group/snt/run2_moriond17/TTJets_SingleLeptFromT_TuneCUETP8M1_13TeV-madgraphMLM-pythia8_RunIISummer16MiniAODv2-PUMoriond17_80X_mcRun2_asymptotic_2016_TrancheIV_v6-v1/V08-00-16/merged_ntuple_24.root
p129
aV/hadoop/cms/store/group/snt/run2_moriond17/TTJets_SingleLeptFromT_TuneCUETP8M1_13TeV-madgraphMLM-pythia8_RunIISummer16MiniAODv2-PUMoriond17_80X_mcRun2_asymptotic_2016_TrancheIV_v6-v1/V08-00-16/merged_ntuple_25.root
p130
aV/hadoop/cms/store/group/snt/run2_moriond17/TTJets_SingleLeptFromT_TuneCUETP8M1_13TeV-madgraphMLM-pythia8_RunIISummer16MiniAODv2-PUMoriond17_80X_mcRun2_asymptotic_2016_TrancheIV_v6-v1/V08-00-16/merged_ntuple_26.root
p131
aV/hadoop/cms/store/group/snt/run2_moriond17/TTJets_SingleLeptFromT_TuneCUETP8M1_13TeV-madgraphMLM-pythia8_RunIISummer16MiniAODv2-PUMoriond17_80X_mcRun2_asymptotic_2016_TrancheIV_v6-v1/V08-00-16/merged_ntuple_27.root
p132
aV/hadoop/cms/store/group/snt/run2_moriond17/TTJets_SingleLeptFromT_TuneCUETP8M1_13TeV-madgraphMLM-pythia8_RunIISummer16MiniAODv2-PUMoriond17_80X_mcRun2_asymptotic_2016_TrancheIV_v6-v1/V08-00-16/merged_ntuple_28.root
p133
aV/hadoop/cms/store/group/snt/run2_moriond17/TTJets_SingleLeptFromT_TuneCUETP8M1_13TeV-madgraphMLM-pythia8_RunIISummer16MiniAODv2-PUMoriond17_80X_mcRun2_asymptotic_2016_TrancheIV_v6-v1/V08-00-16/merged_ntuple_29.root
p134
aV/hadoop/cms/store/group/snt/run2_moriond17/TTJets_SingleLeptFromT_TuneCUETP8M1_13TeV-madgraphMLM-pythia8_RunIISummer16MiniAODv2-PUMoriond17_80X_mcRun2_asymptotic_2016_TrancheIV_v6-v1/V08-00-16/merged_ntuple_3.root
p135
aV/hadoop/cms/store/group/snt/run2_moriond17/TTJets_SingleLeptFromT_TuneCUETP8M1_13TeV-madgraphMLM-pythia8_RunIISummer16MiniAODv2-PUMoriond17_80X_mcRun2_asymptotic_2016_TrancheIV_v6-v1/V08-00-16/merged_ntuple_30.root
p136
aV/hadoop/cms/store/group/snt/run2_moriond17/TTJets_SingleLeptFromT_TuneCUETP8M1_13TeV-madgraphMLM-pythia8_RunIISummer16MiniAODv2-PUMoriond17_80X_mcRun2_asymptotic_2016_TrancheIV_v6-v1/V08-00-16/merged_ntuple_31.root
p137
aV/hadoop/cms/store/group/snt/run2_moriond17/TTJets_SingleLeptFromT_TuneCUETP8M1_13TeV-madgraphMLM-pythia8_RunIISummer16MiniAODv2-PUMoriond17_80X_mcRun2_asymptotic_2016_TrancheIV_v6-v1/V08-00-16/merged_ntuple_32.root
p138
aV/hadoop/cms/store/group/snt/run2_moriond17/TTJets_SingleLeptFromT_TuneCUETP8M1_13TeV-madgraphMLM-pythia8_RunIISummer16MiniAODv2-PUMoriond17_80X_mcRun2_asymptotic_2016_TrancheIV_v6-v1/V08-00-16/merged_ntuple_33.root
p139
aV/hadoop/cms/store/group/snt/run2_moriond17/TTJets_SingleLeptFromT_TuneCUETP8M1_13TeV-madgraphMLM-pythia8_RunIISummer16MiniAODv2-PUMoriond17_80X_mcRun2_asymptotic_2016_TrancheIV_v6-v1/V08-00-16/merged_ntuple_34.root
p140
aV/hadoop/cms/store/group/snt/run2_moriond17/TTJets_SingleLeptFromT_TuneCUETP8M1_13TeV-madgraphMLM-pythia8_RunIISummer16MiniAODv2-PUMoriond17_80X_mcRun2_asymptotic_2016_TrancheIV_v6-v1/V08-00-16/merged_ntuple_35.root
p141
aV/hadoop/cms/store/group/snt/run2_moriond17/TTJets_SingleLeptFromT_TuneCUETP8M1_13TeV-madgraphMLM-pythia8_RunIISummer16MiniAODv2-PUMoriond17_80X_mcRun2_asymptotic_2016_TrancheIV_v6-v1/V08-00-16/merged_ntuple_36.root
p142
aV/hadoop/cms/store/group/snt/run2_moriond17/TTJets_SingleLeptFromT_TuneCUETP8M1_13TeV-madgraphMLM-pythia8_RunIISummer16MiniAODv2-PUMoriond17_80X_mcRun2_asymptotic_2016_TrancheIV_v6-v1/V08-00-16/merged_ntuple_37.root
p143
aV/hadoop/cms/store/group/snt/run2_moriond17/TTJets_SingleLeptFromT_TuneCUETP8M1_13TeV-madgraphMLM-pythia8_RunIISummer16MiniAODv2-PUMoriond17_80X_mcRun2_asymptotic_2016_TrancheIV_v6-v1/V08-00-16/merged_ntuple_38.root
p144
aV/hadoop/cms/store/group/snt/run2_moriond17/TTJets_SingleLeptFromT_TuneCUETP8M1_13TeV-madgraphMLM-pythia8_RunIISummer16MiniAODv2-PUMoriond17_80X_mcRun2_asymptotic_2016_TrancheIV_v6-v1/V08-00-16/merged_ntuple_39.root
p145
aV/hadoop/cms/store/group/snt/run2_moriond17/TTJets_SingleLeptFromT_TuneCUETP8M1_13TeV-madgraphMLM-pythia8_RunIISummer16MiniAODv2-PUMoriond17_80X_mcRun2_asymptotic_2016_TrancheIV_v6-v1/V08-00-16/merged_ntuple_4.root
p146
aV/hadoop/cms/store/group/snt/run2_moriond17/TTJets_SingleLeptFromT_TuneCUETP8M1_13TeV-madgraphMLM-pythia8_RunIISummer16MiniAODv2-PUMoriond17_80X_mcRun2_asymptotic_2016_TrancheIV_v6-v1/V08-00-16/merged_ntuple_40.root
p147
aV/hadoop/cms/store/group/snt/run2_moriond17/TTJets_SingleLeptFromT_TuneCUETP8M1_13TeV-madgraphMLM-pythia8_RunIISummer16MiniAODv2-PUMoriond17_80X_mcRun2_asymptotic_2016_TrancheIV_v6-v1/V08-00-16/merged_ntuple_41.root
p148
aV/hadoop/cms/store/group/snt/run2_moriond17/TTJets_SingleLeptFromT_TuneCUETP8M1_13TeV-madgraphMLM-pythia8_RunIISummer16MiniAODv2-PUMoriond17_80X_mcRun2_asymptotic_2016_TrancheIV_v6-v1/V08-00-16/merged_ntuple_42.root
p149
aV/hadoop/cms/store/group/snt/run2_moriond17/TTJets_SingleLeptFromT_TuneCUETP8M1_13TeV-madgraphMLM-pythia8_RunIISummer16MiniAODv2-PUMoriond17_80X_mcRun2_asymptotic_2016_TrancheIV_v6-v1/V08-00-16/merged_ntuple_43.root
p150
aV/hadoop/cms/store/group/snt/run2_moriond17/TTJets_SingleLeptFromT_TuneCUETP8M1_13TeV-madgraphMLM-pythia8_RunIISummer16MiniAODv2-PUMoriond17_80X_mcRun2_asymptotic_2016_TrancheIV_v6-v1/V08-00-16/merged_ntuple_44.root
p151
aV/hadoop/cms/store/group/snt/run2_moriond17/TTJets_SingleLeptFromT_TuneCUETP8M1_13TeV-madgraphMLM-pythia8_RunIISummer16MiniAODv2-PUMoriond17_80X_mcRun2_asymptotic_2016_TrancheIV_v6-v1/V08-00-16/merged_ntuple_45.root
p152
aV/hadoop/cms/store/group/snt/run2_moriond17/TTJets_SingleLeptFromT_TuneCUETP8M1_13TeV-madgraphMLM-pythia8_RunIISummer16MiniAODv2-PUMoriond17_80X_mcRun2_asymptotic_2016_TrancheIV_v6-v1/V08-00-16/merged_ntuple_46.root
p153
aV/hadoop/cms/store/group/snt/run2_moriond17/TTJets_SingleLeptFromT_TuneCUETP8M1_13TeV-madgraphMLM-pythia8_RunIISummer16MiniAODv2-PUMoriond17_80X_mcRun2_asymptotic_2016_TrancheIV_v6-v1/V08-00-16/merged_ntuple_47.root
p154
aV/hadoop/cms/store/group/snt/run2_moriond17/TTJets_SingleLeptFromT_TuneCUETP8M1_13TeV-madgraphMLM-pythia8_RunIISummer16MiniAODv2-PUMoriond17_80X_mcRun2_asymptotic_2016_TrancheIV_v6-v1/V08-00-16/merged_ntuple_48.root
p155
aV/hadoop/cms/store/group/snt/run2_moriond17/TTJets_SingleLeptFromT_TuneCUETP8M1_13TeV-madgraphMLM-pythia8_RunIISummer16MiniAODv2-PUMoriond17_80X_mcRun2_asymptotic_2016_TrancheIV_v6-v1/V08-00-16/merged_ntuple_49.root
p156
aV/hadoop/cms/store/group/snt/run2_moriond17/TTJets_SingleLeptFromT_TuneCUETP8M1_13TeV-madgraphMLM-pythia8_RunIISummer16MiniAODv2-PUMoriond17_80X_mcRun2_asymptotic_2016_TrancheIV_v6-v1/V08-00-16/merged_ntuple_5.root
p157
aV/hadoop/cms/store/group/snt/run2_moriond17/TTJets_SingleLeptFromT_TuneCUETP8M1_13TeV-madgraphMLM-pythia8_RunIISummer16MiniAODv2-PUMoriond17_80X_mcRun2_asymptotic_2016_TrancheIV_v6-v1/V08-00-16/merged_ntuple_50.root
p158
aV/hadoop/cms/store/group/snt/run2_moriond17/TTJets_SingleLeptFromT_TuneCUETP8M1_13TeV-madgraphMLM-pythia8_RunIISummer16MiniAODv2-PUMoriond17_80X_mcRun2_asymptotic_2016_TrancheIV_v6-v1/V08-00-16/merged_ntuple_51.root
p159
aV/hadoop/cms/store/group/snt/run2_moriond17/TTJets_SingleLeptFromT_TuneCUETP8M1_13TeV-madgraphMLM-pythia8_RunIISummer16MiniAODv2-PUMoriond17_80X_mcRun2_asymptotic_2016_TrancheIV_v6-v1/V08-00-16/merged_ntuple_52.root
p160
aV/hadoop/cms/store/group/snt/run2_moriond17/TTJets_SingleLeptFromT_TuneCUETP8M1_13TeV-madgraphMLM-pythia8_RunIISummer16MiniAODv2-PUMoriond17_80X_mcRun2_asymptotic_2016_TrancheIV_v6-v1/V08-00-16/merged_ntuple_53.root
p161
aV/hadoop/cms/store/group/snt/run2_moriond17/TTJets_SingleLeptFromT_TuneCUETP8M1_13TeV-madgraphMLM-pythia8_RunIISummer16MiniAODv2-PUMoriond17_80X_mcRun2_asymptotic_2016_TrancheIV_v6-v1/V08-00-16/merged_ntuple_54.root
p162
aV/hadoop/cms/store/group/snt/run2_moriond17/TTJets_SingleLeptFromT_TuneCUETP8M1_13TeV-madgraphMLM-pythia8_RunIISummer16MiniAODv2-PUMoriond17_80X_mcRun2_asymptotic_2016_TrancheIV_v6-v1/V08-00-16/merged_ntuple_55.root
p163
aV/hadoop/cms/store/group/snt/run2_moriond17/TTJets_SingleLeptFromT_TuneCUETP8M1_13TeV-madgraphMLM-pythia8_RunIISummer16MiniAODv2-PUMoriond17_80X_mcRun2_asymptotic_2016_TrancheIV_v6-v1/V08-00-16/merged_ntuple_56.root
p164
aV/hadoop/cms/store/group/snt/run2_moriond17/TTJets_SingleLeptFromT_TuneCUETP8M1_13TeV-madgraphMLM-pythia8_RunIISummer16MiniAODv2-PUMoriond17_80X_mcRun2_asymptotic_2016_TrancheIV_v6-v1/V08-00-16/merged_ntuple_57.root
p165
aV/hadoop/cms/store/group/snt/run2_moriond17/TTJets_SingleLeptFromT_TuneCUETP8M1_13TeV-madgraphMLM-pythia8_RunIISummer16MiniAODv2-PUMoriond17_80X_mcRun2_asymptotic_2016_TrancheIV_v6-v1/V08-00-16/merged_ntuple_58.root
p166
aV/hadoop/cms/store/group/snt/run2_moriond17/TTJets_SingleLeptFromT_TuneCUETP8M1_13TeV-madgraphMLM-pythia8_RunIISummer16MiniAODv2-PUMoriond17_80X_mcRun2_asymptotic_2016_TrancheIV_v6-v1/V08-00-16/merged_ntuple_59.root
p167
aV/hadoop/cms/store/group/snt/run2_moriond17/TTJets_SingleLeptFromT_TuneCUETP8M1_13TeV-madgraphMLM-pythia8_RunIISummer16MiniAODv2-PUMoriond17_80X_mcRun2_asymptotic_2016_TrancheIV_v6-v1/V08-00-16/merged_ntuple_6.root
p168
aV/hadoop/cms/store/group/snt/run2_moriond17/TTJets_SingleLeptFromT_TuneCUETP8M1_13TeV-madgraphMLM-pythia8_RunIISummer16MiniAODv2-PUMoriond17_80X_mcRun2_asymptotic_2016_TrancheIV_v6-v1/V08-00-16/merged_ntuple_60.root
p169
aV/hadoop/cms/store/group/snt/run2_moriond17/TTJets_SingleLeptFromT_TuneCUETP8M1_13TeV-madgraphMLM-pythia8_RunIISummer16MiniAODv2-PUMoriond17_80X_mcRun2_asymptotic_2016_TrancheIV_v6-v1/V08-00-16/merged_ntuple_61.root
p170
aV/hadoop/cms/store/group/snt/run2_moriond17/TTJets_SingleLeptFromT_TuneCUETP8M1_13TeV-madgraphMLM-pythia8_RunIISummer16MiniAODv2-PUMoriond17_80X_mcRun2_asymptotic_2016_TrancheIV_v6-v1/V08-00-16/merged_ntuple_62.root
p171
aV/hadoop/cms/store/group/snt/run2_moriond17/TTJets_SingleLeptFromT_TuneCUETP8M1_13TeV-madgraphMLM-pythia8_RunIISummer16MiniAODv2-PUMoriond17_80X_mcRun2_asymptotic_2016_TrancheIV_v6-v1/V08-00-16/merged_ntuple_63.root
p172
aV/hadoop/cms/store/group/snt/run2_moriond17/TTJets_SingleLeptFromT_TuneCUETP8M1_13TeV-madgraphMLM-pythia8_RunIISummer16MiniAODv2-PUMoriond17_80X_mcRun2_asymptotic_2016_TrancheIV_v6-v1/V08-00-16/merged_ntuple_64.root
p173
aV/hadoop/cms/store/group/snt/run2_moriond17/TTJets_SingleLeptFromT_TuneCUETP8M1_13TeV-madgraphMLM-pythia8_RunIISummer16MiniAODv2-PUMoriond17_80X_mcRun2_asymptotic_2016_TrancheIV_v6-v1/V08-00-16/merged_ntuple_65.root
p174
aV/hadoop/cms/store/group/snt/run2_moriond17/TTJets_SingleLeptFromT_TuneCUETP8M1_13TeV-madgraphMLM-pythia8_RunIISummer16MiniAODv2-PUMoriond17_80X_mcRun2_asymptotic_2016_TrancheIV_v6-v1/V08-00-16/merged_ntuple_66.root
p175
aV/hadoop/cms/store/group/snt/run2_moriond17/TTJets_SingleLeptFromT_TuneCUETP8M1_13TeV-madgraphMLM-pythia8_RunIISummer16MiniAODv2-PUMoriond17_80X_mcRun2_asymptotic_2016_TrancheIV_v6-v1/V08-00-16/merged_ntuple_67.root
p176
aV/hadoop/cms/store/group/snt/run2_moriond17/TTJets_SingleLeptFromT_TuneCUETP8M1_13TeV-madgraphMLM-pythia8_RunIISummer16MiniAODv2-PUMoriond17_80X_mcRun2_asymptotic_2016_TrancheIV_v6-v1/V08-00-16/merged_ntuple_68.root
p177
aV/hadoop/cms/store/group/snt/run2_moriond17/TTJets_SingleLeptFromT_TuneCUETP8M1_13TeV-madgraphMLM-pythia8_RunIISummer16MiniAODv2-PUMoriond17_80X_mcRun2_asymptotic_2016_TrancheIV_v6-v1/V08-00-16/merged_ntuple_69.root
p178
aV/hadoop/cms/store/group/snt/run2_moriond17/TTJets_SingleLeptFromT_TuneCUETP8M1_13TeV-madgraphMLM-pythia8_RunIISummer16MiniAODv2-PUMoriond17_80X_mcRun2_asymptotic_2016_TrancheIV_v6-v1/V08-00-16/merged_ntuple_7.root
p179
aV/hadoop/cms/store/group/snt/run2_moriond17/TTJets_SingleLeptFromT_TuneCUETP8M1_13TeV-madgraphMLM-pythia8_RunIISummer16MiniAODv2-PUMoriond17_80X_mcRun2_asymptotic_2016_TrancheIV_v6-v1/V08-00-16/merged_ntuple_70.root
p180
aV/hadoop/cms/store/group/snt/run2_moriond17/TTJets_SingleLeptFromT_TuneCUETP8M1_13TeV-madgraphMLM-pythia8_RunIISummer16MiniAODv2-PUMoriond17_80X_mcRun2_asymptotic_2016_TrancheIV_v6-v1/V08-00-16/merged_ntuple_71.root
p181
aV/hadoop/cms/store/group/snt/run2_moriond17/TTJets_SingleLeptFromT_TuneCUETP8M1_13TeV-madgraphMLM-pythia8_RunIISummer16MiniAODv2-PUMoriond17_80X_mcRun2_asymptotic_2016_TrancheIV_v6-v1/V08-00-16/merged_ntuple_72.root
p182
aV/hadoop/cms/store/group/snt/run2_moriond17/TTJets_SingleLeptFromT_TuneCUETP8M1_13TeV-madgraphMLM-pythia8_RunIISummer16MiniAODv2-PUMoriond17_80X_mcRun2_asymptotic_2016_TrancheIV_v6-v1/V08-00-16/merged_ntuple_73.root
p183
aV/hadoop/cms/store/group/snt/run2_moriond17/TTJets_SingleLeptFromT_TuneCUETP8M1_13TeV-madgraphMLM-pythia8_RunIISummer16MiniAODv2-PUMoriond17_80X_mcRun2_asymptotic_2016_TrancheIV_v6-v1/V08-00-16/merged_ntuple_74.root
p184
aV/hadoop/cms/store/group/snt/run2_moriond17/TTJets_SingleLeptFromT_TuneCUETP8M1_13TeV-madgraphMLM-pythia8_RunIISummer16MiniAODv2-PUMoriond17_80X_mcRun2_asymptotic_2016_TrancheIV_v6-v1/V08-00-16/merged_ntuple_75.root
p185
aV/hadoop/cms/store/group/snt/run2_moriond17/TTJets_SingleLeptFromT_TuneCUETP8M1_13TeV-madgraphMLM-pythia8_RunIISummer16MiniAODv2-PUMoriond17_80X_mcRun2_asymptotic_2016_TrancheIV_v6-v1/V08-00-16/merged_ntuple_8.root
p186
aV/hadoop/cms/store/group/snt/run2_moriond17/TTJets_SingleLeptFromT_TuneCUETP8M1_13TeV-madgraphMLM-pythia8_RunIISummer16MiniAODv2-PUMoriond17_80X_mcRun2_asymptotic_2016_TrancheIV_v6-v1/V08-00-16/merged_ntuple_9.root
p187
assS'nevents_unmerged'
p188
I0
sg99
g100
sS'postprocessing'
p189
(dp190
g91
I0
sg77
I8
sg54
I8
sg106
I0
ssS'nevents_merged'
p191
I0
sS'nevents_DAS'
p192
I0
ssS'misc'
p193
(dp194
S'rootfiles'
p195
(lp196
sS'crab_config'
p197
NsS'last_saved'
p198
I1503478644
sS'handled_more_than_1k'
p199
I00
sS'can_skip_tail'
p200
I00
sS'email_when_done'
p201
I00
sS'update_dis_when_done'
p202
I00
sS'pfx_babies'
p203
S'babies'
p204
sS'logfiles'
p205
(lp206
sS'pfx_pset'
p207
g7
sS'pfx_crab'
p208
g31
ss.