(dp0
S'sample'
p1
(dp2
S'gtag'
p3
NsS'isdata'
p4
I00
sS'dataset'
p5
S'/WJetsToLNu_HT-600To800_TuneCUETP8M1_13TeV-madgraphMLM-pythia8/RunIISummer16MiniAODv2-PUMoriond17_80X_mcRun2_asymptotic_2016_TrancheIV_v6-v1/MINIAODSIM'
p6
sS'pset'
p7
S''
p8
sS'finaldir'
p9
g8
sS'ijob_to_nevents'
p10
(dp11
sS'basedir'
p12
S'/home/users/dpgilber/MT2AnalysisEdit/babymaker/batchsubmit/'
p13
sS'kfact'
p14
NsS'imerged_to_ijob'
p15
(dp16
S'output'
p17
(dp18
I1
(lp19
I1
aI10
aI11
aI12
aI13
aI14
aI15
aI16
aI17
aI18
aI19
aI2
aI20
aI21
asI2
(lp20
I22
aI23
aI24
aI3
aI4
aI5
aI6
aI7
aI8
aI9
assS'skim'
p21
(dp22
I1
(lp23
I1
aI10
aI11
aI12
aI13
aI14
aI15
aI16
aI17
aI18
aI19
aI2
aI20
aI21
aI22
aI23
aI24
aI3
aI4
aI5
aI6
aI7
aI8
aI9
assS'skim_rphi'
p24
(dp25
I1
(lp26
I1
aI10
aI11
aI12
aI13
aI14
aI15
aI16
aI17
aI18
aI19
aI2
aI20
aI21
aI22
aI23
aI24
aI3
aI4
aI5
aI6
aI7
aI8
aI9
asssS'crab'
p27
(dp28
S'resubmissions'
p29
I0
sS'datetime'
p30
NsS'jobs_left'
p31
(lp32
sS'requestname'
p33
S'WJetsToLNu_HT-600To800_TuneCUETP8M1_13TeV-madgraphMLM-pythia8_RunIISummer16MiniAODv2-PUMoriond17_80'
p34
sS'taskdir'
p35
S'babies/babies_WJetsToLNu_HT-600To800_TuneCUETP8M1_13TeV-madgraphMLM-pythia8_RunIISummer16MiniAODv2-PUMoriond17_80_AllPF'
p36
sS'outputdir'
p37
NsS'jobs_left_tail'
p38
(lp39
ssS'shortname'
p40
S'WJetsToLNu_HT-600To800_TuneCUETP8M1_13TeV-madgraphMLM-pythia8_RunIISummer16MiniAODv2-PUMoriond17_80X_mcRun2_asymptotic_2016_TrancheIV_v6-v1'
p41
sS'xsec'
p42
NsS'type'
p43
S'BABY'
p44
sS'checks'
p45
(dp46
sS'sparms'
p47
(lp48
sS'status'
p49
S'done'
p50
sS'ijob_to_miniaod'
p51
(dp52
sS'cms3tag'
p53
VCMS3_V08-00-16
p54
sS'specialdir'
p55
g8
sS'user'
p56
S'dpgilber'
p57
sS'efact'
p58
NsS'baby'
p59
(dp60
S'condor_done'
p61
I24
sS'outputdir_pattern'
p62
S'/hadoop/cms/store/user/dpgilber/AutoTwopler_babies/${ANALYSIS}_${BABY_TAG}/${SHORTNAME}/'
p63
sS'user_executable'
p64
S'/home/users/dpgilber/MT2AnalysisEdit/babymaker/batchsubmit/job_input/wrapper_auto.sh'
p65
sg5
g6
sS'scramarch'
p66
S'slc6_amd64_gcc530'
p67
sS'sweepRoot_script'
p68
S'/home/users/dpgilber/MT2AnalysisEdit/babymaker/batchsubmit//babies/sweepRoot.sh'
p69
sS'executable_script'
p70
S'/home/users/dpgilber/MT2AnalysisEdit/babymaker/batchsubmit//babies/baby_ducks.sh'
p71
sg9
S'/hadoop/cms/store/user/dpgilber/AutoTwopler_babies/MT2_AllPF/WJetsToLNu_HT-600To800_TuneCUETP8M1_13TeV-madgraphMLM-pythia8_RunIISummer16MiniAODv2-PUMoriond17_80X_mcRun2_asymptotic_2016_TrancheIV_v6-v1/'
p72
sS'total'
p73
I24
sS'nevents'
p74
I-1
sS'output_names_nosplit'
p75
S'output.root,skim.root,skim_rphi.root'
p76
sS'imerged'
p77
(lp78
I1
aI10
aI11
aI12
aI13
aI14
aI15
aI16
aI17
aI18
aI19
aI2
aI20
aI21
aI22
aI23
aI24
aI3
aI4
aI5
aI6
aI7
aI8
aI9
asS'sweepRooted'
p79
I24
sS'exe_args'
p80
(lp81
g8
asS'merged_dir'
p82
S'/hadoop/cms/store/user/dpgilber/AutoTwopler_babies/merged//MT2/AllPF/'
p83
sS'user_package'
p84
S'/home/users/dpgilber/MT2AnalysisEdit/babymaker/batchsubmit/job_input/package.tar.gz'
p85
sS'exe_args_nosplit'
p86
g8
sS'running'
p87
I0
sS'output_names'
p88
(lp89
S'output.root'
p90
aS'skim.root'
p91
aS'skim_rphi.root'
p92
asS'package'
p93
S'/home/users/dpgilber/MT2AnalysisEdit/babymaker/batchsubmit//babies/package.tar.gz'
p94
sS'cmsswver'
p95
S'CMSSW_8_0_21'
p96
sS'have_set_inputs'
p97
I01
sS'analysis'
p98
S'MT2'
p99
sS'merging_script'
p100
S'/home/users/dpgilber/MT2AnalysisEdit/babymaker/batchsubmit//babies/merging_script.sh'
p101
sS'idle'
p102
I0
sS'baby_tag'
p103
S'AllPF'
p104
sS'imerged_swept'
p105
(lp106
I8
aI3
aI12
aI15
aI9
aI22
aI17
aI1
aI2
aI4
aI7
aI10
aI11
aI13
aI14
aI16
aI18
aI19
aI20
aI21
aI23
aI24
aI5
aI6
asS'input_filenames'
p107
(lp108
V/hadoop/cms/store/group/snt/run2_moriond17/WJetsToLNu_HT-600To800_TuneCUETP8M1_13TeV-madgraphMLM-pythia8_RunIISummer16MiniAODv2-PUMoriond17_80X_mcRun2_asymptotic_2016_TrancheIV_v6-v1/V08-00-16/merged_ntuple_1.root
p109
aV/hadoop/cms/store/group/snt/run2_moriond17/WJetsToLNu_HT-600To800_TuneCUETP8M1_13TeV-madgraphMLM-pythia8_RunIISummer16MiniAODv2-PUMoriond17_80X_mcRun2_asymptotic_2016_TrancheIV_v6-v1/V08-00-16/merged_ntuple_10.root
p110
aV/hadoop/cms/store/group/snt/run2_moriond17/WJetsToLNu_HT-600To800_TuneCUETP8M1_13TeV-madgraphMLM-pythia8_RunIISummer16MiniAODv2-PUMoriond17_80X_mcRun2_asymptotic_2016_TrancheIV_v6-v1/V08-00-16/merged_ntuple_11.root
p111
aV/hadoop/cms/store/group/snt/run2_moriond17/WJetsToLNu_HT-600To800_TuneCUETP8M1_13TeV-madgraphMLM-pythia8_RunIISummer16MiniAODv2-PUMoriond17_80X_mcRun2_asymptotic_2016_TrancheIV_v6-v1/V08-00-16/merged_ntuple_12.root
p112
aV/hadoop/cms/store/group/snt/run2_moriond17/WJetsToLNu_HT-600To800_TuneCUETP8M1_13TeV-madgraphMLM-pythia8_RunIISummer16MiniAODv2-PUMoriond17_80X_mcRun2_asymptotic_2016_TrancheIV_v6-v1/V08-00-16/merged_ntuple_13.root
p113
aV/hadoop/cms/store/group/snt/run2_moriond17/WJetsToLNu_HT-600To800_TuneCUETP8M1_13TeV-madgraphMLM-pythia8_RunIISummer16MiniAODv2-PUMoriond17_80X_mcRun2_asymptotic_2016_TrancheIV_v6-v1/V08-00-16/merged_ntuple_14.root
p114
aV/hadoop/cms/store/group/snt/run2_moriond17/WJetsToLNu_HT-600To800_TuneCUETP8M1_13TeV-madgraphMLM-pythia8_RunIISummer16MiniAODv2-PUMoriond17_80X_mcRun2_asymptotic_2016_TrancheIV_v6-v1/V08-00-16/merged_ntuple_15.root
p115
aV/hadoop/cms/store/group/snt/run2_moriond17/WJetsToLNu_HT-600To800_TuneCUETP8M1_13TeV-madgraphMLM-pythia8_RunIISummer16MiniAODv2-PUMoriond17_80X_mcRun2_asymptotic_2016_TrancheIV_v6-v1/V08-00-16/merged_ntuple_16.root
p116
aV/hadoop/cms/store/group/snt/run2_moriond17/WJetsToLNu_HT-600To800_TuneCUETP8M1_13TeV-madgraphMLM-pythia8_RunIISummer16MiniAODv2-PUMoriond17_80X_mcRun2_asymptotic_2016_TrancheIV_v6-v1/V08-00-16/merged_ntuple_17.root
p117
aV/hadoop/cms/store/group/snt/run2_moriond17/WJetsToLNu_HT-600To800_TuneCUETP8M1_13TeV-madgraphMLM-pythia8_RunIISummer16MiniAODv2-PUMoriond17_80X_mcRun2_asymptotic_2016_TrancheIV_v6-v1/V08-00-16/merged_ntuple_18.root
p118
aV/hadoop/cms/store/group/snt/run2_moriond17/WJetsToLNu_HT-600To800_TuneCUETP8M1_13TeV-madgraphMLM-pythia8_RunIISummer16MiniAODv2-PUMoriond17_80X_mcRun2_asymptotic_2016_TrancheIV_v6-v1/V08-00-16/merged_ntuple_19.root
p119
aV/hadoop/cms/store/group/snt/run2_moriond17/WJetsToLNu_HT-600To800_TuneCUETP8M1_13TeV-madgraphMLM-pythia8_RunIISummer16MiniAODv2-PUMoriond17_80X_mcRun2_asymptotic_2016_TrancheIV_v6-v1/V08-00-16/merged_ntuple_2.root
p120
aV/hadoop/cms/store/group/snt/run2_moriond17/WJetsToLNu_HT-600To800_TuneCUETP8M1_13TeV-madgraphMLM-pythia8_RunIISummer16MiniAODv2-PUMoriond17_80X_mcRun2_asymptotic_2016_TrancheIV_v6-v1/V08-00-16/merged_ntuple_20.root
p121
aV/hadoop/cms/store/group/snt/run2_moriond17/WJetsToLNu_HT-600To800_TuneCUETP8M1_13TeV-madgraphMLM-pythia8_RunIISummer16MiniAODv2-PUMoriond17_80X_mcRun2_asymptotic_2016_TrancheIV_v6-v1/V08-00-16/merged_ntuple_21.root
p122
aV/hadoop/cms/store/group/snt/run2_moriond17/WJetsToLNu_HT-600To800_TuneCUETP8M1_13TeV-madgraphMLM-pythia8_RunIISummer16MiniAODv2-PUMoriond17_80X_mcRun2_asymptotic_2016_TrancheIV_v6-v1/V08-00-16/merged_ntuple_22.root
p123
aV/hadoop/cms/store/group/snt/run2_moriond17/WJetsToLNu_HT-600To800_TuneCUETP8M1_13TeV-madgraphMLM-pythia8_RunIISummer16MiniAODv2-PUMoriond17_80X_mcRun2_asymptotic_2016_TrancheIV_v6-v1/V08-00-16/merged_ntuple_23.root
p124
aV/hadoop/cms/store/group/snt/run2_moriond17/WJetsToLNu_HT-600To800_TuneCUETP8M1_13TeV-madgraphMLM-pythia8_RunIISummer16MiniAODv2-PUMoriond17_80X_mcRun2_asymptotic_2016_TrancheIV_v6-v1/V08-00-16/merged_ntuple_24.root
p125
aV/hadoop/cms/store/group/snt/run2_moriond17/WJetsToLNu_HT-600To800_TuneCUETP8M1_13TeV-madgraphMLM-pythia8_RunIISummer16MiniAODv2-PUMoriond17_80X_mcRun2_asymptotic_2016_TrancheIV_v6-v1/V08-00-16/merged_ntuple_3.root
p126
aV/hadoop/cms/store/group/snt/run2_moriond17/WJetsToLNu_HT-600To800_TuneCUETP8M1_13TeV-madgraphMLM-pythia8_RunIISummer16MiniAODv2-PUMoriond17_80X_mcRun2_asymptotic_2016_TrancheIV_v6-v1/V08-00-16/merged_ntuple_4.root
p127
aV/hadoop/cms/store/group/snt/run2_moriond17/WJetsToLNu_HT-600To800_TuneCUETP8M1_13TeV-madgraphMLM-pythia8_RunIISummer16MiniAODv2-PUMoriond17_80X_mcRun2_asymptotic_2016_TrancheIV_v6-v1/V08-00-16/merged_ntuple_5.root
p128
aV/hadoop/cms/store/group/snt/run2_moriond17/WJetsToLNu_HT-600To800_TuneCUETP8M1_13TeV-madgraphMLM-pythia8_RunIISummer16MiniAODv2-PUMoriond17_80X_mcRun2_asymptotic_2016_TrancheIV_v6-v1/V08-00-16/merged_ntuple_6.root
p129
aV/hadoop/cms/store/group/snt/run2_moriond17/WJetsToLNu_HT-600To800_TuneCUETP8M1_13TeV-madgraphMLM-pythia8_RunIISummer16MiniAODv2-PUMoriond17_80X_mcRun2_asymptotic_2016_TrancheIV_v6-v1/V08-00-16/merged_ntuple_7.root
p130
aV/hadoop/cms/store/group/snt/run2_moriond17/WJetsToLNu_HT-600To800_TuneCUETP8M1_13TeV-madgraphMLM-pythia8_RunIISummer16MiniAODv2-PUMoriond17_80X_mcRun2_asymptotic_2016_TrancheIV_v6-v1/V08-00-16/merged_ntuple_8.root
p131
aV/hadoop/cms/store/group/snt/run2_moriond17/WJetsToLNu_HT-600To800_TuneCUETP8M1_13TeV-madgraphMLM-pythia8_RunIISummer16MiniAODv2-PUMoriond17_80X_mcRun2_asymptotic_2016_TrancheIV_v6-v1/V08-00-16/merged_ntuple_9.root
p132
assS'nevents_unmerged'
p133
I0
sg95
g96
sS'postprocessing'
p134
(dp135
g87
I0
sg73
I4
sg50
I4
sg102
I0
ssS'nevents_merged'
p136
I0
sS'nevents_DAS'
p137
I0
ssS'misc'
p138
(dp139
S'rootfiles'
p140
(lp141
sS'crab_config'
p142
NsS'last_saved'
p143
I1503478644
sS'handled_more_than_1k'
p144
I00
sS'can_skip_tail'
p145
I00
sS'email_when_done'
p146
I00
sS'update_dis_when_done'
p147
I00
sS'pfx_babies'
p148
S'babies'
p149
sS'logfiles'
p150
(lp151
sS'pfx_pset'
p152
g7
sS'pfx_crab'
p153
g27
ss.