(dp0
S'sample'
p1
(dp2
S'gtag'
p3
NsS'isdata'
p4
I00
sS'dataset'
p5
S'/WJetsToLNu_HT-2500ToInf_TuneCUETP8M1_13TeV-madgraphMLM-pythia8/RunIISummer16MiniAODv2-PUMoriond17_80X_mcRun2_asymptotic_2016_TrancheIV_v6-v1/MINIAODSIM'
p6
sS'pset'
p7
S''
p8
sS'finaldir'
p9
g8
sS'ijob_to_nevents'
p10
(dp11
sS'basedir'
p12
S'/home/users/dpgilber/MT2AnalysisEdit/babymaker/batchsubmit/'
p13
sS'kfact'
p14
NsS'imerged_to_ijob'
p15
(dp16
S'output'
p17
(dp18
I1
(lp19
I1
aI2
aI3
assS'skim'
p20
(dp21
I1
(lp22
I1
aI2
aI3
assS'skim_rphi'
p23
(dp24
I1
(lp25
I1
aI2
aI3
asssS'crab'
p26
(dp27
S'resubmissions'
p28
I0
sS'datetime'
p29
NsS'jobs_left'
p30
(lp31
sS'requestname'
p32
S'WJetsToLNu_HT-2500ToInf_TuneCUETP8M1_13TeV-madgraphMLM-pythia8_RunIISummer16MiniAODv2-PUMoriond17_8'
p33
sS'taskdir'
p34
S'babies/babies_WJetsToLNu_HT-2500ToInf_TuneCUETP8M1_13TeV-madgraphMLM-pythia8_RunIISummer16MiniAODv2-PUMoriond17_8_AllPF'
p35
sS'outputdir'
p36
NsS'jobs_left_tail'
p37
(lp38
ssS'shortname'
p39
S'WJetsToLNu_HT-2500ToInf_TuneCUETP8M1_13TeV-madgraphMLM-pythia8_RunIISummer16MiniAODv2-PUMoriond17_80X_mcRun2_asymptotic_2016_TrancheIV_v6-v1'
p40
sS'xsec'
p41
NsS'type'
p42
S'BABY'
p43
sS'checks'
p44
(dp45
sS'sparms'
p46
(lp47
sS'status'
p48
S'done'
p49
sS'ijob_to_miniaod'
p50
(dp51
sS'cms3tag'
p52
VCMS3_V08-00-16
p53
sS'specialdir'
p54
g8
sS'user'
p55
S'dpgilber'
p56
sS'efact'
p57
NsS'baby'
p58
(dp59
S'condor_done'
p60
I3
sS'sweepRoot_script'
p61
S'/home/users/dpgilber/MT2AnalysisEdit/babymaker/batchsubmit//babies/sweepRoot.sh'
p62
sS'user_executable'
p63
S'/home/users/dpgilber/MT2AnalysisEdit/babymaker/batchsubmit/job_input/wrapper_auto.sh'
p64
sS'dataset'
p65
g6
sS'scramarch'
p66
S'slc6_amd64_gcc530'
p67
sS'outputdir_pattern'
p68
S'/hadoop/cms/store/user/dpgilber/AutoTwopler_babies/${ANALYSIS}_${BABY_TAG}/${SHORTNAME}/'
p69
sS'total'
p70
I3
sS'finaldir'
p71
S'/hadoop/cms/store/user/dpgilber/AutoTwopler_babies/MT2_AllPF/WJetsToLNu_HT-2500ToInf_TuneCUETP8M1_13TeV-madgraphMLM-pythia8_RunIISummer16MiniAODv2-PUMoriond17_80X_mcRun2_asymptotic_2016_TrancheIV_v6-v1/'
p72
sS'merging_script'
p73
S'/home/users/dpgilber/MT2AnalysisEdit/babymaker/batchsubmit//babies/merging_script.sh'
p74
sS'idle'
p75
I0
sS'output_names_nosplit'
p76
S'output.root,skim.root,skim_rphi.root'
p77
sS'imerged'
p78
(lp79
I1
aI2
aI3
asS'sweepRooted'
p80
I3
sS'exe_args'
p81
(lp82
g8
asS'merged_dir'
p83
S'/hadoop/cms/store/user/dpgilber/AutoTwopler_babies/merged//MT2/AllPF/'
p84
sS'user_package'
p85
S'/home/users/dpgilber/MT2AnalysisEdit/babymaker/batchsubmit/job_input/package.tar.gz'
p86
sS'exe_args_nosplit'
p87
g8
sS'running'
p88
I0
sS'output_names'
p89
(lp90
S'output.root'
p91
aS'skim.root'
p92
aS'skim_rphi.root'
p93
asS'package'
p94
S'/home/users/dpgilber/MT2AnalysisEdit/babymaker/batchsubmit//babies/package.tar.gz'
p95
sS'cmsswver'
p96
S'CMSSW_8_0_21'
p97
sS'have_set_inputs'
p98
I01
sS'analysis'
p99
S'MT2'
p100
sS'executable_script'
p101
S'/home/users/dpgilber/MT2AnalysisEdit/babymaker/batchsubmit//babies/baby_ducks.sh'
p102
sS'nevents'
p103
I-1
sS'baby_tag'
p104
S'AllPF'
p105
sS'imerged_swept'
p106
(lp107
I3
aI1
aI2
asS'input_filenames'
p108
(lp109
V/hadoop/cms/store/group/snt/run2_moriond17/WJetsToLNu_HT-2500ToInf_TuneCUETP8M1_13TeV-madgraphMLM-pythia8_RunIISummer16MiniAODv2-PUMoriond17_80X_mcRun2_asymptotic_2016_TrancheIV_v6-v1/V08-00-16/merged_ntuple_1.root
p110
aV/hadoop/cms/store/group/snt/run2_moriond17/WJetsToLNu_HT-2500ToInf_TuneCUETP8M1_13TeV-madgraphMLM-pythia8_RunIISummer16MiniAODv2-PUMoriond17_80X_mcRun2_asymptotic_2016_TrancheIV_v6-v1/V08-00-16/merged_ntuple_2.root
p111
aV/hadoop/cms/store/group/snt/run2_moriond17/WJetsToLNu_HT-2500ToInf_TuneCUETP8M1_13TeV-madgraphMLM-pythia8_RunIISummer16MiniAODv2-PUMoriond17_80X_mcRun2_asymptotic_2016_TrancheIV_v6-v1/V08-00-16/merged_ntuple_3.root
p112
assS'nevents_unmerged'
p113
I0
sS'cmsswver'
p114
g97
sS'postprocessing'
p115
(dp116
S'running'
p117
I0
sS'total'
p118
I3
sg49
I3
sS'idle'
p119
I0
ssS'nevents_merged'
p120
I0
sS'nevents_DAS'
p121
I0
ssS'misc'
p122
(dp123
S'rootfiles'
p124
(lp125
sS'crab_config'
p126
NsS'last_saved'
p127
I1503478644
sS'handled_more_than_1k'
p128
I00
sS'can_skip_tail'
p129
I00
sS'email_when_done'
p130
I00
sS'update_dis_when_done'
p131
I00
sS'pfx_babies'
p132
S'babies'
p133
sS'logfiles'
p134
(lp135
sS'pfx_pset'
p136
S'pset'
p137
sS'pfx_crab'
p138
S'crab'
p139
ss.