(dp0
S'sample'
p1
(dp2
S'gtag'
p3
NsS'isdata'
p4
I00
sS'dataset'
p5
S'/WJetsToLNu_HT-200To400_TuneCUETP8M1_13TeV-madgraphMLM-pythia8/RunIISummer16MiniAODv2-PUMoriond17_80X_mcRun2_asymptotic_2016_TrancheIV_v6_ext1-v1/MINIAODSIM'
p6
sS'pset'
p7
S''
p8
sS'finaldir'
p9
g8
sS'ijob_to_nevents'
p10
(dp11
sS'basedir'
p12
S'/home/users/dpgilber/MT2AnalysisEdit/babymaker/batchsubmit/'
p13
sS'kfact'
p14
NsS'imerged_to_ijob'
p15
(dp16
S'output'
p17
(dp18
I1
(lp19
I1
aI10
aI11
aI12
aI13
aI14
aI15
aI16
aI17
aI18
aI19
aI2
aI20
aI21
aI22
aI23
asI2
(lp20
I24
aI25
aI26
aI27
aI28
aI29
aI3
aI30
aI31
aI32
aI33
aI34
aI35
aI36
aI37
asI3
(lp21
I38
aI39
aI4
aI40
aI41
aI42
aI43
aI44
aI45
aI46
aI47
aI48
aI49
aI5
aI50
aI51
asI4
(lp22
I52
aI53
aI54
aI55
aI56
aI57
aI58
aI59
aI6
aI60
aI61
aI62
aI63
aI64
aI65
aI66
aI67
asI5
(lp23
I68
aI69
aI7
aI70
aI71
aI72
aI73
aI74
aI75
aI76
aI77
aI78
aI79
aI8
aI80
aI81
asI6
(lp24
I82
aI83
aI84
aI85
aI86
aI87
aI88
aI89
aI9
assS'skim'
p25
(dp26
I1
(lp27
I1
aI10
aI11
aI12
aI13
aI14
aI15
aI16
aI17
aI18
aI19
aI2
aI20
aI21
aI22
aI23
aI24
aI25
aI26
aI27
aI28
aI29
aI3
aI30
aI31
aI32
aI33
aI34
aI35
aI36
aI37
aI38
aI39
aI4
aI40
aI41
aI42
aI43
aI44
aI45
aI46
aI47
aI48
aI49
aI5
aI50
aI51
aI52
aI53
aI54
aI55
aI56
aI57
aI58
aI59
aI6
aI60
aI61
aI62
aI63
aI64
aI65
aI66
aI67
aI68
aI69
aI7
aI70
aI71
aI72
aI73
aI74
aI75
aI76
aI77
aI78
aI79
aI8
aI80
aI81
aI82
aI83
aI84
aI85
aI86
aI87
aI88
aI89
aI9
assS'skim_rphi'
p28
(dp29
I1
(lp30
I1
aI10
aI11
aI12
aI13
aI14
aI15
aI16
aI17
aI18
aI19
aI2
aI20
aI21
aI22
aI23
aI24
aI25
aI26
aI27
aI28
aI29
aI3
aI30
aI31
aI32
aI33
aI34
aI35
aI36
aI37
aI38
aI39
aI4
aI40
aI41
aI42
aI43
aI44
aI45
aI46
aI47
aI48
aI49
aI5
aI50
aI51
aI52
aI53
aI54
aI55
aI56
aI57
aI58
aI59
aI6
aI60
aI61
aI62
aI63
aI64
aI65
aI66
aI67
aI68
aI69
aI7
aI70
aI71
aI72
aI73
aI74
aI75
aI76
aI77
aI78
aI79
aI8
aI80
aI81
aI82
aI83
aI84
aI85
aI86
aI87
aI88
aI89
aI9
asssS'crab'
p31
(dp32
S'resubmissions'
p33
I0
sS'datetime'
p34
NsS'jobs_left'
p35
(lp36
sS'requestname'
p37
S'WJetsToLNu_HT-200To400_TuneCUETP8M1_13TeV-madgraphMLM-pythia8_RunIISummer16MiniAODv2-PUMorion_ext1'
p38
sS'taskdir'
p39
S'babies/babies_WJetsToLNu_HT-200To400_TuneCUETP8M1_13TeV-madgraphMLM-pythia8_RunIISummer16MiniAODv2-PUMorion_ext1_AllPF'
p40
sS'outputdir'
p41
NsS'jobs_left_tail'
p42
(lp43
ssS'shortname'
p44
S'WJetsToLNu_HT-200To400_TuneCUETP8M1_13TeV-madgraphMLM-pythia8_RunIISummer16MiniAODv2-PUMoriond17_80X_mcRun2_asymptotic_2016_TrancheIV_v6_ext1-v1'
p45
sS'xsec'
p46
NsS'type'
p47
S'BABY'
p48
sS'checks'
p49
(dp50
sS'sparms'
p51
(lp52
sS'status'
p53
S'done'
p54
sS'ijob_to_miniaod'
p55
(dp56
sS'cms3tag'
p57
VCMS3_V08-00-16
p58
sS'specialdir'
p59
g8
sS'user'
p60
S'dpgilber'
p61
sS'efact'
p62
NsS'baby'
p63
(dp64
S'condor_done'
p65
I89
sS'outputdir_pattern'
p66
S'/hadoop/cms/store/user/dpgilber/AutoTwopler_babies/${ANALYSIS}_${BABY_TAG}/${SHORTNAME}/'
p67
sS'user_executable'
p68
S'/home/users/dpgilber/MT2AnalysisEdit/babymaker/batchsubmit/job_input/wrapper_auto.sh'
p69
sg5
g6
sS'scramarch'
p70
S'slc6_amd64_gcc530'
p71
sS'sweepRoot_script'
p72
S'/home/users/dpgilber/MT2AnalysisEdit/babymaker/batchsubmit//babies/sweepRoot.sh'
p73
sS'executable_script'
p74
S'/home/users/dpgilber/MT2AnalysisEdit/babymaker/batchsubmit//babies/baby_ducks.sh'
p75
sg9
S'/hadoop/cms/store/user/dpgilber/AutoTwopler_babies/MT2_AllPF/WJetsToLNu_HT-200To400_TuneCUETP8M1_13TeV-madgraphMLM-pythia8_RunIISummer16MiniAODv2-PUMoriond17_80X_mcRun2_asymptotic_2016_TrancheIV_v6_ext1-v1/'
p76
sS'total'
p77
I89
sS'nevents'
p78
I-1
sS'output_names_nosplit'
p79
S'output.root,skim.root,skim_rphi.root'
p80
sS'imerged'
p81
(lp82
I1
aI10
aI11
aI12
aI13
aI14
aI15
aI16
aI17
aI18
aI19
aI2
aI20
aI21
aI22
aI23
aI24
aI25
aI26
aI27
aI28
aI29
aI3
aI30
aI31
aI32
aI33
aI34
aI35
aI36
aI37
aI38
aI39
aI4
aI40
aI41
aI42
aI43
aI44
aI45
aI46
aI47
aI48
aI49
aI5
aI50
aI51
aI52
aI53
aI54
aI55
aI56
aI57
aI58
aI59
aI6
aI60
aI61
aI62
aI63
aI64
aI65
aI66
aI67
aI68
aI69
aI7
aI70
aI71
aI72
aI73
aI74
aI75
aI76
aI77
aI78
aI79
aI8
aI80
aI81
aI82
aI83
aI84
aI85
aI86
aI87
aI88
aI89
aI9
asS'sweepRooted'
p83
I89
sS'exe_args'
p84
(lp85
g8
asS'merged_dir'
p86
S'/hadoop/cms/store/user/dpgilber/AutoTwopler_babies/merged//MT2/AllPF/'
p87
sS'user_package'
p88
S'/home/users/dpgilber/MT2AnalysisEdit/babymaker/batchsubmit/job_input/package.tar.gz'
p89
sS'exe_args_nosplit'
p90
g8
sS'running'
p91
I0
sS'output_names'
p92
(lp93
S'output.root'
p94
aS'skim.root'
p95
aS'skim_rphi.root'
p96
asS'package'
p97
S'/home/users/dpgilber/MT2AnalysisEdit/babymaker/batchsubmit//babies/package.tar.gz'
p98
sS'cmsswver'
p99
S'CMSSW_8_0_21'
p100
sS'have_set_inputs'
p101
I01
sS'analysis'
p102
S'MT2'
p103
sS'merging_script'
p104
S'/home/users/dpgilber/MT2AnalysisEdit/babymaker/batchsubmit//babies/merging_script.sh'
p105
sS'idle'
p106
I0
sS'baby_tag'
p107
S'AllPF'
p108
sS'imerged_swept'
p109
(lp110
I40
aI65
aI2
aI22
aI54
aI3
aI12
aI14
aI16
aI17
aI18
aI24
aI27
aI29
aI38
aI39
aI41
aI43
aI46
aI56
aI58
aI61
aI66
aI68
aI82
aI83
aI84
aI86
aI1
aI4
aI5
aI6
aI7
aI8
aI10
aI11
aI13
aI21
aI23
aI28
aI32
aI33
aI35
aI37
aI47
aI49
aI53
aI60
aI64
aI75
aI77
aI78
aI80
aI81
aI87
aI88
aI9
aI15
aI19
aI20
aI25
aI26
aI30
aI31
aI36
aI42
aI45
aI48
aI51
aI52
aI57
aI59
aI63
aI67
aI69
aI70
aI73
aI74
aI76
aI79
aI85
aI34
aI72
aI44
aI50
aI55
aI89
aI62
aI71
asS'input_filenames'
p111
(lp112
V/hadoop/cms/store/group/snt/run2_moriond17/WJetsToLNu_HT-200To400_TuneCUETP8M1_13TeV-madgraphMLM-pythia8_RunIISummer16MiniAODv2-PUMoriond17_80X_mcRun2_asymptotic_2016_TrancheIV_v6_ext1-v1/V08-00-16/merged_ntuple_1.root
p113
aV/hadoop/cms/store/group/snt/run2_moriond17/WJetsToLNu_HT-200To400_TuneCUETP8M1_13TeV-madgraphMLM-pythia8_RunIISummer16MiniAODv2-PUMoriond17_80X_mcRun2_asymptotic_2016_TrancheIV_v6_ext1-v1/V08-00-16/merged_ntuple_10.root
p114
aV/hadoop/cms/store/group/snt/run2_moriond17/WJetsToLNu_HT-200To400_TuneCUETP8M1_13TeV-madgraphMLM-pythia8_RunIISummer16MiniAODv2-PUMoriond17_80X_mcRun2_asymptotic_2016_TrancheIV_v6_ext1-v1/V08-00-16/merged_ntuple_11.root
p115
aV/hadoop/cms/store/group/snt/run2_moriond17/WJetsToLNu_HT-200To400_TuneCUETP8M1_13TeV-madgraphMLM-pythia8_RunIISummer16MiniAODv2-PUMoriond17_80X_mcRun2_asymptotic_2016_TrancheIV_v6_ext1-v1/V08-00-16/merged_ntuple_12.root
p116
aV/hadoop/cms/store/group/snt/run2_moriond17/WJetsToLNu_HT-200To400_TuneCUETP8M1_13TeV-madgraphMLM-pythia8_RunIISummer16MiniAODv2-PUMoriond17_80X_mcRun2_asymptotic_2016_TrancheIV_v6_ext1-v1/V08-00-16/merged_ntuple_13.root
p117
aV/hadoop/cms/store/group/snt/run2_moriond17/WJetsToLNu_HT-200To400_TuneCUETP8M1_13TeV-madgraphMLM-pythia8_RunIISummer16MiniAODv2-PUMoriond17_80X_mcRun2_asymptotic_2016_TrancheIV_v6_ext1-v1/V08-00-16/merged_ntuple_14.root
p118
aV/hadoop/cms/store/group/snt/run2_moriond17/WJetsToLNu_HT-200To400_TuneCUETP8M1_13TeV-madgraphMLM-pythia8_RunIISummer16MiniAODv2-PUMoriond17_80X_mcRun2_asymptotic_2016_TrancheIV_v6_ext1-v1/V08-00-16/merged_ntuple_15.root
p119
aV/hadoop/cms/store/group/snt/run2_moriond17/WJetsToLNu_HT-200To400_TuneCUETP8M1_13TeV-madgraphMLM-pythia8_RunIISummer16MiniAODv2-PUMoriond17_80X_mcRun2_asymptotic_2016_TrancheIV_v6_ext1-v1/V08-00-16/merged_ntuple_16.root
p120
aV/hadoop/cms/store/group/snt/run2_moriond17/WJetsToLNu_HT-200To400_TuneCUETP8M1_13TeV-madgraphMLM-pythia8_RunIISummer16MiniAODv2-PUMoriond17_80X_mcRun2_asymptotic_2016_TrancheIV_v6_ext1-v1/V08-00-16/merged_ntuple_17.root
p121
aV/hadoop/cms/store/group/snt/run2_moriond17/WJetsToLNu_HT-200To400_TuneCUETP8M1_13TeV-madgraphMLM-pythia8_RunIISummer16MiniAODv2-PUMoriond17_80X_mcRun2_asymptotic_2016_TrancheIV_v6_ext1-v1/V08-00-16/merged_ntuple_18.root
p122
aV/hadoop/cms/store/group/snt/run2_moriond17/WJetsToLNu_HT-200To400_TuneCUETP8M1_13TeV-madgraphMLM-pythia8_RunIISummer16MiniAODv2-PUMoriond17_80X_mcRun2_asymptotic_2016_TrancheIV_v6_ext1-v1/V08-00-16/merged_ntuple_19.root
p123
aV/hadoop/cms/store/group/snt/run2_moriond17/WJetsToLNu_HT-200To400_TuneCUETP8M1_13TeV-madgraphMLM-pythia8_RunIISummer16MiniAODv2-PUMoriond17_80X_mcRun2_asymptotic_2016_TrancheIV_v6_ext1-v1/V08-00-16/merged_ntuple_2.root
p124
aV/hadoop/cms/store/group/snt/run2_moriond17/WJetsToLNu_HT-200To400_TuneCUETP8M1_13TeV-madgraphMLM-pythia8_RunIISummer16MiniAODv2-PUMoriond17_80X_mcRun2_asymptotic_2016_TrancheIV_v6_ext1-v1/V08-00-16/merged_ntuple_20.root
p125
aV/hadoop/cms/store/group/snt/run2_moriond17/WJetsToLNu_HT-200To400_TuneCUETP8M1_13TeV-madgraphMLM-pythia8_RunIISummer16MiniAODv2-PUMoriond17_80X_mcRun2_asymptotic_2016_TrancheIV_v6_ext1-v1/V08-00-16/merged_ntuple_21.root
p126
aV/hadoop/cms/store/group/snt/run2_moriond17/WJetsToLNu_HT-200To400_TuneCUETP8M1_13TeV-madgraphMLM-pythia8_RunIISummer16MiniAODv2-PUMoriond17_80X_mcRun2_asymptotic_2016_TrancheIV_v6_ext1-v1/V08-00-16/merged_ntuple_22.root
p127
aV/hadoop/cms/store/group/snt/run2_moriond17/WJetsToLNu_HT-200To400_TuneCUETP8M1_13TeV-madgraphMLM-pythia8_RunIISummer16MiniAODv2-PUMoriond17_80X_mcRun2_asymptotic_2016_TrancheIV_v6_ext1-v1/V08-00-16/merged_ntuple_23.root
p128
aV/hadoop/cms/store/group/snt/run2_moriond17/WJetsToLNu_HT-200To400_TuneCUETP8M1_13TeV-madgraphMLM-pythia8_RunIISummer16MiniAODv2-PUMoriond17_80X_mcRun2_asymptotic_2016_TrancheIV_v6_ext1-v1/V08-00-16/merged_ntuple_24.root
p129
aV/hadoop/cms/store/group/snt/run2_moriond17/WJetsToLNu_HT-200To400_TuneCUETP8M1_13TeV-madgraphMLM-pythia8_RunIISummer16MiniAODv2-PUMoriond17_80X_mcRun2_asymptotic_2016_TrancheIV_v6_ext1-v1/V08-00-16/merged_ntuple_25.root
p130
aV/hadoop/cms/store/group/snt/run2_moriond17/WJetsToLNu_HT-200To400_TuneCUETP8M1_13TeV-madgraphMLM-pythia8_RunIISummer16MiniAODv2-PUMoriond17_80X_mcRun2_asymptotic_2016_TrancheIV_v6_ext1-v1/V08-00-16/merged_ntuple_26.root
p131
aV/hadoop/cms/store/group/snt/run2_moriond17/WJetsToLNu_HT-200To400_TuneCUETP8M1_13TeV-madgraphMLM-pythia8_RunIISummer16MiniAODv2-PUMoriond17_80X_mcRun2_asymptotic_2016_TrancheIV_v6_ext1-v1/V08-00-16/merged_ntuple_27.root
p132
aV/hadoop/cms/store/group/snt/run2_moriond17/WJetsToLNu_HT-200To400_TuneCUETP8M1_13TeV-madgraphMLM-pythia8_RunIISummer16MiniAODv2-PUMoriond17_80X_mcRun2_asymptotic_2016_TrancheIV_v6_ext1-v1/V08-00-16/merged_ntuple_28.root
p133
aV/hadoop/cms/store/group/snt/run2_moriond17/WJetsToLNu_HT-200To400_TuneCUETP8M1_13TeV-madgraphMLM-pythia8_RunIISummer16MiniAODv2-PUMoriond17_80X_mcRun2_asymptotic_2016_TrancheIV_v6_ext1-v1/V08-00-16/merged_ntuple_29.root
p134
aV/hadoop/cms/store/group/snt/run2_moriond17/WJetsToLNu_HT-200To400_TuneCUETP8M1_13TeV-madgraphMLM-pythia8_RunIISummer16MiniAODv2-PUMoriond17_80X_mcRun2_asymptotic_2016_TrancheIV_v6_ext1-v1/V08-00-16/merged_ntuple_3.root
p135
aV/hadoop/cms/store/group/snt/run2_moriond17/WJetsToLNu_HT-200To400_TuneCUETP8M1_13TeV-madgraphMLM-pythia8_RunIISummer16MiniAODv2-PUMoriond17_80X_mcRun2_asymptotic_2016_TrancheIV_v6_ext1-v1/V08-00-16/merged_ntuple_30.root
p136
aV/hadoop/cms/store/group/snt/run2_moriond17/WJetsToLNu_HT-200To400_TuneCUETP8M1_13TeV-madgraphMLM-pythia8_RunIISummer16MiniAODv2-PUMoriond17_80X_mcRun2_asymptotic_2016_TrancheIV_v6_ext1-v1/V08-00-16/merged_ntuple_31.root
p137
aV/hadoop/cms/store/group/snt/run2_moriond17/WJetsToLNu_HT-200To400_TuneCUETP8M1_13TeV-madgraphMLM-pythia8_RunIISummer16MiniAODv2-PUMoriond17_80X_mcRun2_asymptotic_2016_TrancheIV_v6_ext1-v1/V08-00-16/merged_ntuple_32.root
p138
aV/hadoop/cms/store/group/snt/run2_moriond17/WJetsToLNu_HT-200To400_TuneCUETP8M1_13TeV-madgraphMLM-pythia8_RunIISummer16MiniAODv2-PUMoriond17_80X_mcRun2_asymptotic_2016_TrancheIV_v6_ext1-v1/V08-00-16/merged_ntuple_33.root
p139
aV/hadoop/cms/store/group/snt/run2_moriond17/WJetsToLNu_HT-200To400_TuneCUETP8M1_13TeV-madgraphMLM-pythia8_RunIISummer16MiniAODv2-PUMoriond17_80X_mcRun2_asymptotic_2016_TrancheIV_v6_ext1-v1/V08-00-16/merged_ntuple_34.root
p140
aV/hadoop/cms/store/group/snt/run2_moriond17/WJetsToLNu_HT-200To400_TuneCUETP8M1_13TeV-madgraphMLM-pythia8_RunIISummer16MiniAODv2-PUMoriond17_80X_mcRun2_asymptotic_2016_TrancheIV_v6_ext1-v1/V08-00-16/merged_ntuple_35.root
p141
aV/hadoop/cms/store/group/snt/run2_moriond17/WJetsToLNu_HT-200To400_TuneCUETP8M1_13TeV-madgraphMLM-pythia8_RunIISummer16MiniAODv2-PUMoriond17_80X_mcRun2_asymptotic_2016_TrancheIV_v6_ext1-v1/V08-00-16/merged_ntuple_36.root
p142
aV/hadoop/cms/store/group/snt/run2_moriond17/WJetsToLNu_HT-200To400_TuneCUETP8M1_13TeV-madgraphMLM-pythia8_RunIISummer16MiniAODv2-PUMoriond17_80X_mcRun2_asymptotic_2016_TrancheIV_v6_ext1-v1/V08-00-16/merged_ntuple_37.root
p143
aV/hadoop/cms/store/group/snt/run2_moriond17/WJetsToLNu_HT-200To400_TuneCUETP8M1_13TeV-madgraphMLM-pythia8_RunIISummer16MiniAODv2-PUMoriond17_80X_mcRun2_asymptotic_2016_TrancheIV_v6_ext1-v1/V08-00-16/merged_ntuple_38.root
p144
aV/hadoop/cms/store/group/snt/run2_moriond17/WJetsToLNu_HT-200To400_TuneCUETP8M1_13TeV-madgraphMLM-pythia8_RunIISummer16MiniAODv2-PUMoriond17_80X_mcRun2_asymptotic_2016_TrancheIV_v6_ext1-v1/V08-00-16/merged_ntuple_39.root
p145
aV/hadoop/cms/store/group/snt/run2_moriond17/WJetsToLNu_HT-200To400_TuneCUETP8M1_13TeV-madgraphMLM-pythia8_RunIISummer16MiniAODv2-PUMoriond17_80X_mcRun2_asymptotic_2016_TrancheIV_v6_ext1-v1/V08-00-16/merged_ntuple_4.root
p146
aV/hadoop/cms/store/group/snt/run2_moriond17/WJetsToLNu_HT-200To400_TuneCUETP8M1_13TeV-madgraphMLM-pythia8_RunIISummer16MiniAODv2-PUMoriond17_80X_mcRun2_asymptotic_2016_TrancheIV_v6_ext1-v1/V08-00-16/merged_ntuple_40.root
p147
aV/hadoop/cms/store/group/snt/run2_moriond17/WJetsToLNu_HT-200To400_TuneCUETP8M1_13TeV-madgraphMLM-pythia8_RunIISummer16MiniAODv2-PUMoriond17_80X_mcRun2_asymptotic_2016_TrancheIV_v6_ext1-v1/V08-00-16/merged_ntuple_41.root
p148
aV/hadoop/cms/store/group/snt/run2_moriond17/WJetsToLNu_HT-200To400_TuneCUETP8M1_13TeV-madgraphMLM-pythia8_RunIISummer16MiniAODv2-PUMoriond17_80X_mcRun2_asymptotic_2016_TrancheIV_v6_ext1-v1/V08-00-16/merged_ntuple_42.root
p149
aV/hadoop/cms/store/group/snt/run2_moriond17/WJetsToLNu_HT-200To400_TuneCUETP8M1_13TeV-madgraphMLM-pythia8_RunIISummer16MiniAODv2-PUMoriond17_80X_mcRun2_asymptotic_2016_TrancheIV_v6_ext1-v1/V08-00-16/merged_ntuple_43.root
p150
aV/hadoop/cms/store/group/snt/run2_moriond17/WJetsToLNu_HT-200To400_TuneCUETP8M1_13TeV-madgraphMLM-pythia8_RunIISummer16MiniAODv2-PUMoriond17_80X_mcRun2_asymptotic_2016_TrancheIV_v6_ext1-v1/V08-00-16/merged_ntuple_44.root
p151
aV/hadoop/cms/store/group/snt/run2_moriond17/WJetsToLNu_HT-200To400_TuneCUETP8M1_13TeV-madgraphMLM-pythia8_RunIISummer16MiniAODv2-PUMoriond17_80X_mcRun2_asymptotic_2016_TrancheIV_v6_ext1-v1/V08-00-16/merged_ntuple_45.root
p152
aV/hadoop/cms/store/group/snt/run2_moriond17/WJetsToLNu_HT-200To400_TuneCUETP8M1_13TeV-madgraphMLM-pythia8_RunIISummer16MiniAODv2-PUMoriond17_80X_mcRun2_asymptotic_2016_TrancheIV_v6_ext1-v1/V08-00-16/merged_ntuple_46.root
p153
aV/hadoop/cms/store/group/snt/run2_moriond17/WJetsToLNu_HT-200To400_TuneCUETP8M1_13TeV-madgraphMLM-pythia8_RunIISummer16MiniAODv2-PUMoriond17_80X_mcRun2_asymptotic_2016_TrancheIV_v6_ext1-v1/V08-00-16/merged_ntuple_47.root
p154
aV/hadoop/cms/store/group/snt/run2_moriond17/WJetsToLNu_HT-200To400_TuneCUETP8M1_13TeV-madgraphMLM-pythia8_RunIISummer16MiniAODv2-PUMoriond17_80X_mcRun2_asymptotic_2016_TrancheIV_v6_ext1-v1/V08-00-16/merged_ntuple_48.root
p155
aV/hadoop/cms/store/group/snt/run2_moriond17/WJetsToLNu_HT-200To400_TuneCUETP8M1_13TeV-madgraphMLM-pythia8_RunIISummer16MiniAODv2-PUMoriond17_80X_mcRun2_asymptotic_2016_TrancheIV_v6_ext1-v1/V08-00-16/merged_ntuple_49.root
p156
aV/hadoop/cms/store/group/snt/run2_moriond17/WJetsToLNu_HT-200To400_TuneCUETP8M1_13TeV-madgraphMLM-pythia8_RunIISummer16MiniAODv2-PUMoriond17_80X_mcRun2_asymptotic_2016_TrancheIV_v6_ext1-v1/V08-00-16/merged_ntuple_5.root
p157
aV/hadoop/cms/store/group/snt/run2_moriond17/WJetsToLNu_HT-200To400_TuneCUETP8M1_13TeV-madgraphMLM-pythia8_RunIISummer16MiniAODv2-PUMoriond17_80X_mcRun2_asymptotic_2016_TrancheIV_v6_ext1-v1/V08-00-16/merged_ntuple_50.root
p158
aV/hadoop/cms/store/group/snt/run2_moriond17/WJetsToLNu_HT-200To400_TuneCUETP8M1_13TeV-madgraphMLM-pythia8_RunIISummer16MiniAODv2-PUMoriond17_80X_mcRun2_asymptotic_2016_TrancheIV_v6_ext1-v1/V08-00-16/merged_ntuple_51.root
p159
aV/hadoop/cms/store/group/snt/run2_moriond17/WJetsToLNu_HT-200To400_TuneCUETP8M1_13TeV-madgraphMLM-pythia8_RunIISummer16MiniAODv2-PUMoriond17_80X_mcRun2_asymptotic_2016_TrancheIV_v6_ext1-v1/V08-00-16/merged_ntuple_52.root
p160
aV/hadoop/cms/store/group/snt/run2_moriond17/WJetsToLNu_HT-200To400_TuneCUETP8M1_13TeV-madgraphMLM-pythia8_RunIISummer16MiniAODv2-PUMoriond17_80X_mcRun2_asymptotic_2016_TrancheIV_v6_ext1-v1/V08-00-16/merged_ntuple_53.root
p161
aV/hadoop/cms/store/group/snt/run2_moriond17/WJetsToLNu_HT-200To400_TuneCUETP8M1_13TeV-madgraphMLM-pythia8_RunIISummer16MiniAODv2-PUMoriond17_80X_mcRun2_asymptotic_2016_TrancheIV_v6_ext1-v1/V08-00-16/merged_ntuple_54.root
p162
aV/hadoop/cms/store/group/snt/run2_moriond17/WJetsToLNu_HT-200To400_TuneCUETP8M1_13TeV-madgraphMLM-pythia8_RunIISummer16MiniAODv2-PUMoriond17_80X_mcRun2_asymptotic_2016_TrancheIV_v6_ext1-v1/V08-00-16/merged_ntuple_55.root
p163
aV/hadoop/cms/store/group/snt/run2_moriond17/WJetsToLNu_HT-200To400_TuneCUETP8M1_13TeV-madgraphMLM-pythia8_RunIISummer16MiniAODv2-PUMoriond17_80X_mcRun2_asymptotic_2016_TrancheIV_v6_ext1-v1/V08-00-16/merged_ntuple_56.root
p164
aV/hadoop/cms/store/group/snt/run2_moriond17/WJetsToLNu_HT-200To400_TuneCUETP8M1_13TeV-madgraphMLM-pythia8_RunIISummer16MiniAODv2-PUMoriond17_80X_mcRun2_asymptotic_2016_TrancheIV_v6_ext1-v1/V08-00-16/merged_ntuple_57.root
p165
aV/hadoop/cms/store/group/snt/run2_moriond17/WJetsToLNu_HT-200To400_TuneCUETP8M1_13TeV-madgraphMLM-pythia8_RunIISummer16MiniAODv2-PUMoriond17_80X_mcRun2_asymptotic_2016_TrancheIV_v6_ext1-v1/V08-00-16/merged_ntuple_58.root
p166
aV/hadoop/cms/store/group/snt/run2_moriond17/WJetsToLNu_HT-200To400_TuneCUETP8M1_13TeV-madgraphMLM-pythia8_RunIISummer16MiniAODv2-PUMoriond17_80X_mcRun2_asymptotic_2016_TrancheIV_v6_ext1-v1/V08-00-16/merged_ntuple_59.root
p167
aV/hadoop/cms/store/group/snt/run2_moriond17/WJetsToLNu_HT-200To400_TuneCUETP8M1_13TeV-madgraphMLM-pythia8_RunIISummer16MiniAODv2-PUMoriond17_80X_mcRun2_asymptotic_2016_TrancheIV_v6_ext1-v1/V08-00-16/merged_ntuple_6.root
p168
aV/hadoop/cms/store/group/snt/run2_moriond17/WJetsToLNu_HT-200To400_TuneCUETP8M1_13TeV-madgraphMLM-pythia8_RunIISummer16MiniAODv2-PUMoriond17_80X_mcRun2_asymptotic_2016_TrancheIV_v6_ext1-v1/V08-00-16/merged_ntuple_60.root
p169
aV/hadoop/cms/store/group/snt/run2_moriond17/WJetsToLNu_HT-200To400_TuneCUETP8M1_13TeV-madgraphMLM-pythia8_RunIISummer16MiniAODv2-PUMoriond17_80X_mcRun2_asymptotic_2016_TrancheIV_v6_ext1-v1/V08-00-16/merged_ntuple_61.root
p170
aV/hadoop/cms/store/group/snt/run2_moriond17/WJetsToLNu_HT-200To400_TuneCUETP8M1_13TeV-madgraphMLM-pythia8_RunIISummer16MiniAODv2-PUMoriond17_80X_mcRun2_asymptotic_2016_TrancheIV_v6_ext1-v1/V08-00-16/merged_ntuple_62.root
p171
aV/hadoop/cms/store/group/snt/run2_moriond17/WJetsToLNu_HT-200To400_TuneCUETP8M1_13TeV-madgraphMLM-pythia8_RunIISummer16MiniAODv2-PUMoriond17_80X_mcRun2_asymptotic_2016_TrancheIV_v6_ext1-v1/V08-00-16/merged_ntuple_63.root
p172
aV/hadoop/cms/store/group/snt/run2_moriond17/WJetsToLNu_HT-200To400_TuneCUETP8M1_13TeV-madgraphMLM-pythia8_RunIISummer16MiniAODv2-PUMoriond17_80X_mcRun2_asymptotic_2016_TrancheIV_v6_ext1-v1/V08-00-16/merged_ntuple_64.root
p173
aV/hadoop/cms/store/group/snt/run2_moriond17/WJetsToLNu_HT-200To400_TuneCUETP8M1_13TeV-madgraphMLM-pythia8_RunIISummer16MiniAODv2-PUMoriond17_80X_mcRun2_asymptotic_2016_TrancheIV_v6_ext1-v1/V08-00-16/merged_ntuple_65.root
p174
aV/hadoop/cms/store/group/snt/run2_moriond17/WJetsToLNu_HT-200To400_TuneCUETP8M1_13TeV-madgraphMLM-pythia8_RunIISummer16MiniAODv2-PUMoriond17_80X_mcRun2_asymptotic_2016_TrancheIV_v6_ext1-v1/V08-00-16/merged_ntuple_66.root
p175
aV/hadoop/cms/store/group/snt/run2_moriond17/WJetsToLNu_HT-200To400_TuneCUETP8M1_13TeV-madgraphMLM-pythia8_RunIISummer16MiniAODv2-PUMoriond17_80X_mcRun2_asymptotic_2016_TrancheIV_v6_ext1-v1/V08-00-16/merged_ntuple_67.root
p176
aV/hadoop/cms/store/group/snt/run2_moriond17/WJetsToLNu_HT-200To400_TuneCUETP8M1_13TeV-madgraphMLM-pythia8_RunIISummer16MiniAODv2-PUMoriond17_80X_mcRun2_asymptotic_2016_TrancheIV_v6_ext1-v1/V08-00-16/merged_ntuple_68.root
p177
aV/hadoop/cms/store/group/snt/run2_moriond17/WJetsToLNu_HT-200To400_TuneCUETP8M1_13TeV-madgraphMLM-pythia8_RunIISummer16MiniAODv2-PUMoriond17_80X_mcRun2_asymptotic_2016_TrancheIV_v6_ext1-v1/V08-00-16/merged_ntuple_69.root
p178
aV/hadoop/cms/store/group/snt/run2_moriond17/WJetsToLNu_HT-200To400_TuneCUETP8M1_13TeV-madgraphMLM-pythia8_RunIISummer16MiniAODv2-PUMoriond17_80X_mcRun2_asymptotic_2016_TrancheIV_v6_ext1-v1/V08-00-16/merged_ntuple_7.root
p179
aV/hadoop/cms/store/group/snt/run2_moriond17/WJetsToLNu_HT-200To400_TuneCUETP8M1_13TeV-madgraphMLM-pythia8_RunIISummer16MiniAODv2-PUMoriond17_80X_mcRun2_asymptotic_2016_TrancheIV_v6_ext1-v1/V08-00-16/merged_ntuple_70.root
p180
aV/hadoop/cms/store/group/snt/run2_moriond17/WJetsToLNu_HT-200To400_TuneCUETP8M1_13TeV-madgraphMLM-pythia8_RunIISummer16MiniAODv2-PUMoriond17_80X_mcRun2_asymptotic_2016_TrancheIV_v6_ext1-v1/V08-00-16/merged_ntuple_71.root
p181
aV/hadoop/cms/store/group/snt/run2_moriond17/WJetsToLNu_HT-200To400_TuneCUETP8M1_13TeV-madgraphMLM-pythia8_RunIISummer16MiniAODv2-PUMoriond17_80X_mcRun2_asymptotic_2016_TrancheIV_v6_ext1-v1/V08-00-16/merged_ntuple_72.root
p182
aV/hadoop/cms/store/group/snt/run2_moriond17/WJetsToLNu_HT-200To400_TuneCUETP8M1_13TeV-madgraphMLM-pythia8_RunIISummer16MiniAODv2-PUMoriond17_80X_mcRun2_asymptotic_2016_TrancheIV_v6_ext1-v1/V08-00-16/merged_ntuple_73.root
p183
aV/hadoop/cms/store/group/snt/run2_moriond17/WJetsToLNu_HT-200To400_TuneCUETP8M1_13TeV-madgraphMLM-pythia8_RunIISummer16MiniAODv2-PUMoriond17_80X_mcRun2_asymptotic_2016_TrancheIV_v6_ext1-v1/V08-00-16/merged_ntuple_74.root
p184
aV/hadoop/cms/store/group/snt/run2_moriond17/WJetsToLNu_HT-200To400_TuneCUETP8M1_13TeV-madgraphMLM-pythia8_RunIISummer16MiniAODv2-PUMoriond17_80X_mcRun2_asymptotic_2016_TrancheIV_v6_ext1-v1/V08-00-16/merged_ntuple_75.root
p185
aV/hadoop/cms/store/group/snt/run2_moriond17/WJetsToLNu_HT-200To400_TuneCUETP8M1_13TeV-madgraphMLM-pythia8_RunIISummer16MiniAODv2-PUMoriond17_80X_mcRun2_asymptotic_2016_TrancheIV_v6_ext1-v1/V08-00-16/merged_ntuple_76.root
p186
aV/hadoop/cms/store/group/snt/run2_moriond17/WJetsToLNu_HT-200To400_TuneCUETP8M1_13TeV-madgraphMLM-pythia8_RunIISummer16MiniAODv2-PUMoriond17_80X_mcRun2_asymptotic_2016_TrancheIV_v6_ext1-v1/V08-00-16/merged_ntuple_77.root
p187
aV/hadoop/cms/store/group/snt/run2_moriond17/WJetsToLNu_HT-200To400_TuneCUETP8M1_13TeV-madgraphMLM-pythia8_RunIISummer16MiniAODv2-PUMoriond17_80X_mcRun2_asymptotic_2016_TrancheIV_v6_ext1-v1/V08-00-16/merged_ntuple_78.root
p188
aV/hadoop/cms/store/group/snt/run2_moriond17/WJetsToLNu_HT-200To400_TuneCUETP8M1_13TeV-madgraphMLM-pythia8_RunIISummer16MiniAODv2-PUMoriond17_80X_mcRun2_asymptotic_2016_TrancheIV_v6_ext1-v1/V08-00-16/merged_ntuple_79.root
p189
aV/hadoop/cms/store/group/snt/run2_moriond17/WJetsToLNu_HT-200To400_TuneCUETP8M1_13TeV-madgraphMLM-pythia8_RunIISummer16MiniAODv2-PUMoriond17_80X_mcRun2_asymptotic_2016_TrancheIV_v6_ext1-v1/V08-00-16/merged_ntuple_8.root
p190
aV/hadoop/cms/store/group/snt/run2_moriond17/WJetsToLNu_HT-200To400_TuneCUETP8M1_13TeV-madgraphMLM-pythia8_RunIISummer16MiniAODv2-PUMoriond17_80X_mcRun2_asymptotic_2016_TrancheIV_v6_ext1-v1/V08-00-16/merged_ntuple_80.root
p191
aV/hadoop/cms/store/group/snt/run2_moriond17/WJetsToLNu_HT-200To400_TuneCUETP8M1_13TeV-madgraphMLM-pythia8_RunIISummer16MiniAODv2-PUMoriond17_80X_mcRun2_asymptotic_2016_TrancheIV_v6_ext1-v1/V08-00-16/merged_ntuple_81.root
p192
aV/hadoop/cms/store/group/snt/run2_moriond17/WJetsToLNu_HT-200To400_TuneCUETP8M1_13TeV-madgraphMLM-pythia8_RunIISummer16MiniAODv2-PUMoriond17_80X_mcRun2_asymptotic_2016_TrancheIV_v6_ext1-v1/V08-00-16/merged_ntuple_82.root
p193
aV/hadoop/cms/store/group/snt/run2_moriond17/WJetsToLNu_HT-200To400_TuneCUETP8M1_13TeV-madgraphMLM-pythia8_RunIISummer16MiniAODv2-PUMoriond17_80X_mcRun2_asymptotic_2016_TrancheIV_v6_ext1-v1/V08-00-16/merged_ntuple_83.root
p194
aV/hadoop/cms/store/group/snt/run2_moriond17/WJetsToLNu_HT-200To400_TuneCUETP8M1_13TeV-madgraphMLM-pythia8_RunIISummer16MiniAODv2-PUMoriond17_80X_mcRun2_asymptotic_2016_TrancheIV_v6_ext1-v1/V08-00-16/merged_ntuple_84.root
p195
aV/hadoop/cms/store/group/snt/run2_moriond17/WJetsToLNu_HT-200To400_TuneCUETP8M1_13TeV-madgraphMLM-pythia8_RunIISummer16MiniAODv2-PUMoriond17_80X_mcRun2_asymptotic_2016_TrancheIV_v6_ext1-v1/V08-00-16/merged_ntuple_85.root
p196
aV/hadoop/cms/store/group/snt/run2_moriond17/WJetsToLNu_HT-200To400_TuneCUETP8M1_13TeV-madgraphMLM-pythia8_RunIISummer16MiniAODv2-PUMoriond17_80X_mcRun2_asymptotic_2016_TrancheIV_v6_ext1-v1/V08-00-16/merged_ntuple_86.root
p197
aV/hadoop/cms/store/group/snt/run2_moriond17/WJetsToLNu_HT-200To400_TuneCUETP8M1_13TeV-madgraphMLM-pythia8_RunIISummer16MiniAODv2-PUMoriond17_80X_mcRun2_asymptotic_2016_TrancheIV_v6_ext1-v1/V08-00-16/merged_ntuple_87.root
p198
aV/hadoop/cms/store/group/snt/run2_moriond17/WJetsToLNu_HT-200To400_TuneCUETP8M1_13TeV-madgraphMLM-pythia8_RunIISummer16MiniAODv2-PUMoriond17_80X_mcRun2_asymptotic_2016_TrancheIV_v6_ext1-v1/V08-00-16/merged_ntuple_88.root
p199
aV/hadoop/cms/store/group/snt/run2_moriond17/WJetsToLNu_HT-200To400_TuneCUETP8M1_13TeV-madgraphMLM-pythia8_RunIISummer16MiniAODv2-PUMoriond17_80X_mcRun2_asymptotic_2016_TrancheIV_v6_ext1-v1/V08-00-16/merged_ntuple_89.root
p200
aV/hadoop/cms/store/group/snt/run2_moriond17/WJetsToLNu_HT-200To400_TuneCUETP8M1_13TeV-madgraphMLM-pythia8_RunIISummer16MiniAODv2-PUMoriond17_80X_mcRun2_asymptotic_2016_TrancheIV_v6_ext1-v1/V08-00-16/merged_ntuple_9.root
p201
assS'nevents_unmerged'
p202
I0
sg99
g100
sS'postprocessing'
p203
(dp204
g91
I0
sg77
I8
sg54
I8
sg106
I0
ssS'nevents_merged'
p205
I0
sS'nevents_DAS'
p206
I0
ssS'misc'
p207
(dp208
S'rootfiles'
p209
(lp210
sS'crab_config'
p211
NsS'last_saved'
p212
I1503478644
sS'handled_more_than_1k'
p213
I00
sS'can_skip_tail'
p214
I00
sS'email_when_done'
p215
I00
sS'update_dis_when_done'
p216
I00
sS'pfx_babies'
p217
S'babies'
p218
sS'logfiles'
p219
(lp220
sS'pfx_pset'
p221
g7
sS'pfx_crab'
p222
g31
ss.