(dp0
S'sample'
p1
(dp2
S'gtag'
p3
NsS'isdata'
p4
I00
sS'dataset'
p5
S'/WJetsToLNu_HT-600To800_TuneCUETP8M1_13TeV-madgraphMLM-pythia8/RunIISummer16MiniAODv2-PUMoriond17_80X_mcRun2_asymptotic_2016_TrancheIV_v6_ext1-v1/MINIAODSIM'
p6
sS'pset'
p7
S''
p8
sS'finaldir'
p9
g8
sS'ijob_to_nevents'
p10
(dp11
sS'basedir'
p12
S'/home/users/dpgilber/MT2AnalysisEdit/babymaker/batchsubmit/'
p13
sS'kfact'
p14
NsS'imerged_to_ijob'
p15
(dp16
S'output'
p17
(dp18
I1
(lp19
I1
aI10
aI11
aI12
aI13
aI14
aI15
aI16
aI17
aI18
aI19
aI2
aI20
aI21
asI2
(lp20
I22
aI23
aI24
aI25
aI26
aI27
aI28
aI29
aI3
aI30
aI31
aI32
aI33
aI34
asI3
(lp21
I35
aI36
aI37
aI38
aI39
aI4
aI40
aI41
aI42
aI43
aI44
aI45
aI46
aI47
asI4
(lp22
I48
aI49
aI5
aI50
aI51
aI52
aI53
aI54
aI55
aI56
aI57
aI58
aI59
aI6
aI60
asI5
(lp23
I61
aI62
aI63
aI64
aI65
aI66
aI67
aI68
aI69
aI7
aI70
aI71
aI72
aI73
asI6
(lp24
I74
aI75
aI76
aI77
aI78
aI79
aI8
aI80
aI81
aI82
aI83
aI84
aI85
aI86
asI7
(lp25
I87
aI88
aI89
aI9
aI90
aI91
assS'skim'
p26
(dp27
I1
(lp28
I1
aI10
aI11
aI12
aI13
aI14
aI15
aI16
aI17
aI18
aI19
aI2
aI20
aI21
aI22
aI23
aI24
aI25
aI26
aI27
aI28
aI29
aI3
aI30
aI31
aI32
aI33
aI34
aI35
aI36
aI37
aI38
aI39
aI4
aI40
aI41
aI42
aI43
aI44
aI45
aI46
aI47
aI48
aI49
aI5
aI50
aI51
aI52
aI53
aI54
aI55
aI56
aI57
aI58
aI59
aI6
aI60
aI61
aI62
aI63
aI64
aI65
aI66
aI67
aI68
aI69
aI7
aI70
aI71
aI72
aI73
aI74
aI75
aI76
aI77
aI78
aI79
aI8
aI80
aI81
aI82
aI83
aI84
aI85
aI86
aI87
aI88
aI89
aI9
aI90
aI91
assS'skim_rphi'
p29
(dp30
I1
(lp31
I1
aI10
aI11
aI12
aI13
aI14
aI15
aI16
aI17
aI18
aI19
aI2
aI20
aI21
aI22
aI23
aI24
aI25
aI26
aI27
aI28
aI29
aI3
aI30
aI31
aI32
aI33
aI34
aI35
aI36
aI37
aI38
aI39
aI4
aI40
aI41
aI42
aI43
aI44
aI45
aI46
aI47
aI48
aI49
aI5
aI50
aI51
aI52
aI53
aI54
aI55
aI56
aI57
aI58
aI59
aI6
aI60
aI61
aI62
aI63
aI64
aI65
aI66
aI67
aI68
aI69
aI7
aI70
aI71
aI72
aI73
aI74
aI75
aI76
aI77
aI78
aI79
aI8
aI80
aI81
aI82
aI83
aI84
aI85
aI86
aI87
aI88
aI89
aI9
aI90
aI91
asssS'crab'
p32
(dp33
S'resubmissions'
p34
I0
sS'datetime'
p35
NsS'jobs_left'
p36
(lp37
sS'requestname'
p38
S'WJetsToLNu_HT-600To800_TuneCUETP8M1_13TeV-madgraphMLM-pythia8_RunIISummer16MiniAODv2-PUMorion_ext1'
p39
sS'taskdir'
p40
S'babies/babies_WJetsToLNu_HT-600To800_TuneCUETP8M1_13TeV-madgraphMLM-pythia8_RunIISummer16MiniAODv2-PUMorion_ext1_AllPF'
p41
sS'outputdir'
p42
NsS'jobs_left_tail'
p43
(lp44
ssS'shortname'
p45
S'WJetsToLNu_HT-600To800_TuneCUETP8M1_13TeV-madgraphMLM-pythia8_RunIISummer16MiniAODv2-PUMoriond17_80X_mcRun2_asymptotic_2016_TrancheIV_v6_ext1-v1'
p46
sS'xsec'
p47
NsS'type'
p48
S'BABY'
p49
sS'checks'
p50
(dp51
sS'sparms'
p52
(lp53
sS'status'
p54
S'done'
p55
sS'ijob_to_miniaod'
p56
(dp57
sS'cms3tag'
p58
VCMS3_V08-00-16
p59
sS'specialdir'
p60
g8
sS'user'
p61
S'dpgilber'
p62
sS'efact'
p63
NsS'baby'
p64
(dp65
S'condor_done'
p66
I91
sS'outputdir_pattern'
p67
S'/hadoop/cms/store/user/dpgilber/AutoTwopler_babies/${ANALYSIS}_${BABY_TAG}/${SHORTNAME}/'
p68
sS'user_executable'
p69
S'/home/users/dpgilber/MT2AnalysisEdit/babymaker/batchsubmit/job_input/wrapper_auto.sh'
p70
sg5
g6
sS'scramarch'
p71
S'slc6_amd64_gcc530'
p72
sS'sweepRoot_script'
p73
S'/home/users/dpgilber/MT2AnalysisEdit/babymaker/batchsubmit//babies/sweepRoot.sh'
p74
sS'executable_script'
p75
S'/home/users/dpgilber/MT2AnalysisEdit/babymaker/batchsubmit//babies/baby_ducks.sh'
p76
sg9
S'/hadoop/cms/store/user/dpgilber/AutoTwopler_babies/MT2_AllPF/WJetsToLNu_HT-600To800_TuneCUETP8M1_13TeV-madgraphMLM-pythia8_RunIISummer16MiniAODv2-PUMoriond17_80X_mcRun2_asymptotic_2016_TrancheIV_v6_ext1-v1/'
p77
sS'total'
p78
I91
sS'nevents'
p79
I-1
sS'output_names_nosplit'
p80
S'output.root,skim.root,skim_rphi.root'
p81
sS'imerged'
p82
(lp83
I1
aI10
aI11
aI12
aI13
aI14
aI15
aI16
aI17
aI18
aI19
aI2
aI20
aI21
aI22
aI23
aI24
aI25
aI26
aI27
aI28
aI29
aI3
aI30
aI31
aI32
aI33
aI34
aI35
aI36
aI37
aI38
aI39
aI4
aI40
aI41
aI42
aI43
aI44
aI45
aI46
aI47
aI48
aI49
aI5
aI50
aI51
aI52
aI53
aI54
aI55
aI56
aI57
aI58
aI59
aI6
aI60
aI61
aI62
aI63
aI64
aI65
aI66
aI67
aI68
aI69
aI7
aI70
aI71
aI72
aI73
aI74
aI75
aI76
aI77
aI78
aI79
aI8
aI80
aI81
aI82
aI83
aI84
aI85
aI86
aI87
aI88
aI89
aI9
aI90
aI91
asS'sweepRooted'
p84
I91
sS'exe_args'
p85
(lp86
g8
asS'merged_dir'
p87
S'/hadoop/cms/store/user/dpgilber/AutoTwopler_babies/merged//MT2/AllPF/'
p88
sS'user_package'
p89
S'/home/users/dpgilber/MT2AnalysisEdit/babymaker/batchsubmit/job_input/package.tar.gz'
p90
sS'exe_args_nosplit'
p91
g8
sS'running'
p92
I0
sS'output_names'
p93
(lp94
S'output.root'
p95
aS'skim.root'
p96
aS'skim_rphi.root'
p97
asS'package'
p98
S'/home/users/dpgilber/MT2AnalysisEdit/babymaker/batchsubmit//babies/package.tar.gz'
p99
sS'cmsswver'
p100
S'CMSSW_8_0_21'
p101
sS'have_set_inputs'
p102
I01
sS'analysis'
p103
S'MT2'
p104
sS'merging_script'
p105
S'/home/users/dpgilber/MT2AnalysisEdit/babymaker/batchsubmit//babies/merging_script.sh'
p106
sS'idle'
p107
I0
sS'baby_tag'
p108
S'AllPF'
p109
sS'imerged_swept'
p110
(lp111
I32
aI10
aI42
aI83
aI90
aI64
aI84
aI2
aI59
aI68
aI5
aI6
aI76
aI12
aI66
aI18
aI51
aI20
aI53
aI88
aI25
aI27
aI60
aI1
aI8
aI13
aI15
aI16
aI17
aI19
aI21
aI22
aI23
aI26
aI29
aI30
aI35
aI36
aI38
aI39
aI41
aI43
aI44
aI47
aI48
aI49
aI50
aI52
aI54
aI55
aI56
aI57
aI58
aI61
aI63
aI65
aI69
aI70
aI71
aI72
aI73
aI75
aI77
aI78
aI79
aI80
aI82
aI85
aI87
aI3
aI4
aI7
aI9
aI11
aI14
aI24
aI28
aI31
aI33
aI34
aI37
aI40
aI45
aI46
aI62
aI67
aI74
aI81
aI86
aI89
aI91
asS'input_filenames'
p112
(lp113
V/hadoop/cms/store/group/snt/run2_moriond17/WJetsToLNu_HT-600To800_TuneCUETP8M1_13TeV-madgraphMLM-pythia8_RunIISummer16MiniAODv2-PUMoriond17_80X_mcRun2_asymptotic_2016_TrancheIV_v6_ext1-v1/V08-00-16/merged_ntuple_1.root
p114
aV/hadoop/cms/store/group/snt/run2_moriond17/WJetsToLNu_HT-600To800_TuneCUETP8M1_13TeV-madgraphMLM-pythia8_RunIISummer16MiniAODv2-PUMoriond17_80X_mcRun2_asymptotic_2016_TrancheIV_v6_ext1-v1/V08-00-16/merged_ntuple_10.root
p115
aV/hadoop/cms/store/group/snt/run2_moriond17/WJetsToLNu_HT-600To800_TuneCUETP8M1_13TeV-madgraphMLM-pythia8_RunIISummer16MiniAODv2-PUMoriond17_80X_mcRun2_asymptotic_2016_TrancheIV_v6_ext1-v1/V08-00-16/merged_ntuple_11.root
p116
aV/hadoop/cms/store/group/snt/run2_moriond17/WJetsToLNu_HT-600To800_TuneCUETP8M1_13TeV-madgraphMLM-pythia8_RunIISummer16MiniAODv2-PUMoriond17_80X_mcRun2_asymptotic_2016_TrancheIV_v6_ext1-v1/V08-00-16/merged_ntuple_12.root
p117
aV/hadoop/cms/store/group/snt/run2_moriond17/WJetsToLNu_HT-600To800_TuneCUETP8M1_13TeV-madgraphMLM-pythia8_RunIISummer16MiniAODv2-PUMoriond17_80X_mcRun2_asymptotic_2016_TrancheIV_v6_ext1-v1/V08-00-16/merged_ntuple_13.root
p118
aV/hadoop/cms/store/group/snt/run2_moriond17/WJetsToLNu_HT-600To800_TuneCUETP8M1_13TeV-madgraphMLM-pythia8_RunIISummer16MiniAODv2-PUMoriond17_80X_mcRun2_asymptotic_2016_TrancheIV_v6_ext1-v1/V08-00-16/merged_ntuple_14.root
p119
aV/hadoop/cms/store/group/snt/run2_moriond17/WJetsToLNu_HT-600To800_TuneCUETP8M1_13TeV-madgraphMLM-pythia8_RunIISummer16MiniAODv2-PUMoriond17_80X_mcRun2_asymptotic_2016_TrancheIV_v6_ext1-v1/V08-00-16/merged_ntuple_15.root
p120
aV/hadoop/cms/store/group/snt/run2_moriond17/WJetsToLNu_HT-600To800_TuneCUETP8M1_13TeV-madgraphMLM-pythia8_RunIISummer16MiniAODv2-PUMoriond17_80X_mcRun2_asymptotic_2016_TrancheIV_v6_ext1-v1/V08-00-16/merged_ntuple_16.root
p121
aV/hadoop/cms/store/group/snt/run2_moriond17/WJetsToLNu_HT-600To800_TuneCUETP8M1_13TeV-madgraphMLM-pythia8_RunIISummer16MiniAODv2-PUMoriond17_80X_mcRun2_asymptotic_2016_TrancheIV_v6_ext1-v1/V08-00-16/merged_ntuple_17.root
p122
aV/hadoop/cms/store/group/snt/run2_moriond17/WJetsToLNu_HT-600To800_TuneCUETP8M1_13TeV-madgraphMLM-pythia8_RunIISummer16MiniAODv2-PUMoriond17_80X_mcRun2_asymptotic_2016_TrancheIV_v6_ext1-v1/V08-00-16/merged_ntuple_18.root
p123
aV/hadoop/cms/store/group/snt/run2_moriond17/WJetsToLNu_HT-600To800_TuneCUETP8M1_13TeV-madgraphMLM-pythia8_RunIISummer16MiniAODv2-PUMoriond17_80X_mcRun2_asymptotic_2016_TrancheIV_v6_ext1-v1/V08-00-16/merged_ntuple_19.root
p124
aV/hadoop/cms/store/group/snt/run2_moriond17/WJetsToLNu_HT-600To800_TuneCUETP8M1_13TeV-madgraphMLM-pythia8_RunIISummer16MiniAODv2-PUMoriond17_80X_mcRun2_asymptotic_2016_TrancheIV_v6_ext1-v1/V08-00-16/merged_ntuple_2.root
p125
aV/hadoop/cms/store/group/snt/run2_moriond17/WJetsToLNu_HT-600To800_TuneCUETP8M1_13TeV-madgraphMLM-pythia8_RunIISummer16MiniAODv2-PUMoriond17_80X_mcRun2_asymptotic_2016_TrancheIV_v6_ext1-v1/V08-00-16/merged_ntuple_20.root
p126
aV/hadoop/cms/store/group/snt/run2_moriond17/WJetsToLNu_HT-600To800_TuneCUETP8M1_13TeV-madgraphMLM-pythia8_RunIISummer16MiniAODv2-PUMoriond17_80X_mcRun2_asymptotic_2016_TrancheIV_v6_ext1-v1/V08-00-16/merged_ntuple_21.root
p127
aV/hadoop/cms/store/group/snt/run2_moriond17/WJetsToLNu_HT-600To800_TuneCUETP8M1_13TeV-madgraphMLM-pythia8_RunIISummer16MiniAODv2-PUMoriond17_80X_mcRun2_asymptotic_2016_TrancheIV_v6_ext1-v1/V08-00-16/merged_ntuple_22.root
p128
aV/hadoop/cms/store/group/snt/run2_moriond17/WJetsToLNu_HT-600To800_TuneCUETP8M1_13TeV-madgraphMLM-pythia8_RunIISummer16MiniAODv2-PUMoriond17_80X_mcRun2_asymptotic_2016_TrancheIV_v6_ext1-v1/V08-00-16/merged_ntuple_23.root
p129
aV/hadoop/cms/store/group/snt/run2_moriond17/WJetsToLNu_HT-600To800_TuneCUETP8M1_13TeV-madgraphMLM-pythia8_RunIISummer16MiniAODv2-PUMoriond17_80X_mcRun2_asymptotic_2016_TrancheIV_v6_ext1-v1/V08-00-16/merged_ntuple_24.root
p130
aV/hadoop/cms/store/group/snt/run2_moriond17/WJetsToLNu_HT-600To800_TuneCUETP8M1_13TeV-madgraphMLM-pythia8_RunIISummer16MiniAODv2-PUMoriond17_80X_mcRun2_asymptotic_2016_TrancheIV_v6_ext1-v1/V08-00-16/merged_ntuple_25.root
p131
aV/hadoop/cms/store/group/snt/run2_moriond17/WJetsToLNu_HT-600To800_TuneCUETP8M1_13TeV-madgraphMLM-pythia8_RunIISummer16MiniAODv2-PUMoriond17_80X_mcRun2_asymptotic_2016_TrancheIV_v6_ext1-v1/V08-00-16/merged_ntuple_26.root
p132
aV/hadoop/cms/store/group/snt/run2_moriond17/WJetsToLNu_HT-600To800_TuneCUETP8M1_13TeV-madgraphMLM-pythia8_RunIISummer16MiniAODv2-PUMoriond17_80X_mcRun2_asymptotic_2016_TrancheIV_v6_ext1-v1/V08-00-16/merged_ntuple_27.root
p133
aV/hadoop/cms/store/group/snt/run2_moriond17/WJetsToLNu_HT-600To800_TuneCUETP8M1_13TeV-madgraphMLM-pythia8_RunIISummer16MiniAODv2-PUMoriond17_80X_mcRun2_asymptotic_2016_TrancheIV_v6_ext1-v1/V08-00-16/merged_ntuple_28.root
p134
aV/hadoop/cms/store/group/snt/run2_moriond17/WJetsToLNu_HT-600To800_TuneCUETP8M1_13TeV-madgraphMLM-pythia8_RunIISummer16MiniAODv2-PUMoriond17_80X_mcRun2_asymptotic_2016_TrancheIV_v6_ext1-v1/V08-00-16/merged_ntuple_29.root
p135
aV/hadoop/cms/store/group/snt/run2_moriond17/WJetsToLNu_HT-600To800_TuneCUETP8M1_13TeV-madgraphMLM-pythia8_RunIISummer16MiniAODv2-PUMoriond17_80X_mcRun2_asymptotic_2016_TrancheIV_v6_ext1-v1/V08-00-16/merged_ntuple_3.root
p136
aV/hadoop/cms/store/group/snt/run2_moriond17/WJetsToLNu_HT-600To800_TuneCUETP8M1_13TeV-madgraphMLM-pythia8_RunIISummer16MiniAODv2-PUMoriond17_80X_mcRun2_asymptotic_2016_TrancheIV_v6_ext1-v1/V08-00-16/merged_ntuple_30.root
p137
aV/hadoop/cms/store/group/snt/run2_moriond17/WJetsToLNu_HT-600To800_TuneCUETP8M1_13TeV-madgraphMLM-pythia8_RunIISummer16MiniAODv2-PUMoriond17_80X_mcRun2_asymptotic_2016_TrancheIV_v6_ext1-v1/V08-00-16/merged_ntuple_31.root
p138
aV/hadoop/cms/store/group/snt/run2_moriond17/WJetsToLNu_HT-600To800_TuneCUETP8M1_13TeV-madgraphMLM-pythia8_RunIISummer16MiniAODv2-PUMoriond17_80X_mcRun2_asymptotic_2016_TrancheIV_v6_ext1-v1/V08-00-16/merged_ntuple_32.root
p139
aV/hadoop/cms/store/group/snt/run2_moriond17/WJetsToLNu_HT-600To800_TuneCUETP8M1_13TeV-madgraphMLM-pythia8_RunIISummer16MiniAODv2-PUMoriond17_80X_mcRun2_asymptotic_2016_TrancheIV_v6_ext1-v1/V08-00-16/merged_ntuple_33.root
p140
aV/hadoop/cms/store/group/snt/run2_moriond17/WJetsToLNu_HT-600To800_TuneCUETP8M1_13TeV-madgraphMLM-pythia8_RunIISummer16MiniAODv2-PUMoriond17_80X_mcRun2_asymptotic_2016_TrancheIV_v6_ext1-v1/V08-00-16/merged_ntuple_34.root
p141
aV/hadoop/cms/store/group/snt/run2_moriond17/WJetsToLNu_HT-600To800_TuneCUETP8M1_13TeV-madgraphMLM-pythia8_RunIISummer16MiniAODv2-PUMoriond17_80X_mcRun2_asymptotic_2016_TrancheIV_v6_ext1-v1/V08-00-16/merged_ntuple_35.root
p142
aV/hadoop/cms/store/group/snt/run2_moriond17/WJetsToLNu_HT-600To800_TuneCUETP8M1_13TeV-madgraphMLM-pythia8_RunIISummer16MiniAODv2-PUMoriond17_80X_mcRun2_asymptotic_2016_TrancheIV_v6_ext1-v1/V08-00-16/merged_ntuple_36.root
p143
aV/hadoop/cms/store/group/snt/run2_moriond17/WJetsToLNu_HT-600To800_TuneCUETP8M1_13TeV-madgraphMLM-pythia8_RunIISummer16MiniAODv2-PUMoriond17_80X_mcRun2_asymptotic_2016_TrancheIV_v6_ext1-v1/V08-00-16/merged_ntuple_37.root
p144
aV/hadoop/cms/store/group/snt/run2_moriond17/WJetsToLNu_HT-600To800_TuneCUETP8M1_13TeV-madgraphMLM-pythia8_RunIISummer16MiniAODv2-PUMoriond17_80X_mcRun2_asymptotic_2016_TrancheIV_v6_ext1-v1/V08-00-16/merged_ntuple_38.root
p145
aV/hadoop/cms/store/group/snt/run2_moriond17/WJetsToLNu_HT-600To800_TuneCUETP8M1_13TeV-madgraphMLM-pythia8_RunIISummer16MiniAODv2-PUMoriond17_80X_mcRun2_asymptotic_2016_TrancheIV_v6_ext1-v1/V08-00-16/merged_ntuple_39.root
p146
aV/hadoop/cms/store/group/snt/run2_moriond17/WJetsToLNu_HT-600To800_TuneCUETP8M1_13TeV-madgraphMLM-pythia8_RunIISummer16MiniAODv2-PUMoriond17_80X_mcRun2_asymptotic_2016_TrancheIV_v6_ext1-v1/V08-00-16/merged_ntuple_4.root
p147
aV/hadoop/cms/store/group/snt/run2_moriond17/WJetsToLNu_HT-600To800_TuneCUETP8M1_13TeV-madgraphMLM-pythia8_RunIISummer16MiniAODv2-PUMoriond17_80X_mcRun2_asymptotic_2016_TrancheIV_v6_ext1-v1/V08-00-16/merged_ntuple_40.root
p148
aV/hadoop/cms/store/group/snt/run2_moriond17/WJetsToLNu_HT-600To800_TuneCUETP8M1_13TeV-madgraphMLM-pythia8_RunIISummer16MiniAODv2-PUMoriond17_80X_mcRun2_asymptotic_2016_TrancheIV_v6_ext1-v1/V08-00-16/merged_ntuple_41.root
p149
aV/hadoop/cms/store/group/snt/run2_moriond17/WJetsToLNu_HT-600To800_TuneCUETP8M1_13TeV-madgraphMLM-pythia8_RunIISummer16MiniAODv2-PUMoriond17_80X_mcRun2_asymptotic_2016_TrancheIV_v6_ext1-v1/V08-00-16/merged_ntuple_42.root
p150
aV/hadoop/cms/store/group/snt/run2_moriond17/WJetsToLNu_HT-600To800_TuneCUETP8M1_13TeV-madgraphMLM-pythia8_RunIISummer16MiniAODv2-PUMoriond17_80X_mcRun2_asymptotic_2016_TrancheIV_v6_ext1-v1/V08-00-16/merged_ntuple_43.root
p151
aV/hadoop/cms/store/group/snt/run2_moriond17/WJetsToLNu_HT-600To800_TuneCUETP8M1_13TeV-madgraphMLM-pythia8_RunIISummer16MiniAODv2-PUMoriond17_80X_mcRun2_asymptotic_2016_TrancheIV_v6_ext1-v1/V08-00-16/merged_ntuple_44.root
p152
aV/hadoop/cms/store/group/snt/run2_moriond17/WJetsToLNu_HT-600To800_TuneCUETP8M1_13TeV-madgraphMLM-pythia8_RunIISummer16MiniAODv2-PUMoriond17_80X_mcRun2_asymptotic_2016_TrancheIV_v6_ext1-v1/V08-00-16/merged_ntuple_45.root
p153
aV/hadoop/cms/store/group/snt/run2_moriond17/WJetsToLNu_HT-600To800_TuneCUETP8M1_13TeV-madgraphMLM-pythia8_RunIISummer16MiniAODv2-PUMoriond17_80X_mcRun2_asymptotic_2016_TrancheIV_v6_ext1-v1/V08-00-16/merged_ntuple_46.root
p154
aV/hadoop/cms/store/group/snt/run2_moriond17/WJetsToLNu_HT-600To800_TuneCUETP8M1_13TeV-madgraphMLM-pythia8_RunIISummer16MiniAODv2-PUMoriond17_80X_mcRun2_asymptotic_2016_TrancheIV_v6_ext1-v1/V08-00-16/merged_ntuple_47.root
p155
aV/hadoop/cms/store/group/snt/run2_moriond17/WJetsToLNu_HT-600To800_TuneCUETP8M1_13TeV-madgraphMLM-pythia8_RunIISummer16MiniAODv2-PUMoriond17_80X_mcRun2_asymptotic_2016_TrancheIV_v6_ext1-v1/V08-00-16/merged_ntuple_48.root
p156
aV/hadoop/cms/store/group/snt/run2_moriond17/WJetsToLNu_HT-600To800_TuneCUETP8M1_13TeV-madgraphMLM-pythia8_RunIISummer16MiniAODv2-PUMoriond17_80X_mcRun2_asymptotic_2016_TrancheIV_v6_ext1-v1/V08-00-16/merged_ntuple_49.root
p157
aV/hadoop/cms/store/group/snt/run2_moriond17/WJetsToLNu_HT-600To800_TuneCUETP8M1_13TeV-madgraphMLM-pythia8_RunIISummer16MiniAODv2-PUMoriond17_80X_mcRun2_asymptotic_2016_TrancheIV_v6_ext1-v1/V08-00-16/merged_ntuple_5.root
p158
aV/hadoop/cms/store/group/snt/run2_moriond17/WJetsToLNu_HT-600To800_TuneCUETP8M1_13TeV-madgraphMLM-pythia8_RunIISummer16MiniAODv2-PUMoriond17_80X_mcRun2_asymptotic_2016_TrancheIV_v6_ext1-v1/V08-00-16/merged_ntuple_50.root
p159
aV/hadoop/cms/store/group/snt/run2_moriond17/WJetsToLNu_HT-600To800_TuneCUETP8M1_13TeV-madgraphMLM-pythia8_RunIISummer16MiniAODv2-PUMoriond17_80X_mcRun2_asymptotic_2016_TrancheIV_v6_ext1-v1/V08-00-16/merged_ntuple_51.root
p160
aV/hadoop/cms/store/group/snt/run2_moriond17/WJetsToLNu_HT-600To800_TuneCUETP8M1_13TeV-madgraphMLM-pythia8_RunIISummer16MiniAODv2-PUMoriond17_80X_mcRun2_asymptotic_2016_TrancheIV_v6_ext1-v1/V08-00-16/merged_ntuple_52.root
p161
aV/hadoop/cms/store/group/snt/run2_moriond17/WJetsToLNu_HT-600To800_TuneCUETP8M1_13TeV-madgraphMLM-pythia8_RunIISummer16MiniAODv2-PUMoriond17_80X_mcRun2_asymptotic_2016_TrancheIV_v6_ext1-v1/V08-00-16/merged_ntuple_53.root
p162
aV/hadoop/cms/store/group/snt/run2_moriond17/WJetsToLNu_HT-600To800_TuneCUETP8M1_13TeV-madgraphMLM-pythia8_RunIISummer16MiniAODv2-PUMoriond17_80X_mcRun2_asymptotic_2016_TrancheIV_v6_ext1-v1/V08-00-16/merged_ntuple_54.root
p163
aV/hadoop/cms/store/group/snt/run2_moriond17/WJetsToLNu_HT-600To800_TuneCUETP8M1_13TeV-madgraphMLM-pythia8_RunIISummer16MiniAODv2-PUMoriond17_80X_mcRun2_asymptotic_2016_TrancheIV_v6_ext1-v1/V08-00-16/merged_ntuple_55.root
p164
aV/hadoop/cms/store/group/snt/run2_moriond17/WJetsToLNu_HT-600To800_TuneCUETP8M1_13TeV-madgraphMLM-pythia8_RunIISummer16MiniAODv2-PUMoriond17_80X_mcRun2_asymptotic_2016_TrancheIV_v6_ext1-v1/V08-00-16/merged_ntuple_56.root
p165
aV/hadoop/cms/store/group/snt/run2_moriond17/WJetsToLNu_HT-600To800_TuneCUETP8M1_13TeV-madgraphMLM-pythia8_RunIISummer16MiniAODv2-PUMoriond17_80X_mcRun2_asymptotic_2016_TrancheIV_v6_ext1-v1/V08-00-16/merged_ntuple_57.root
p166
aV/hadoop/cms/store/group/snt/run2_moriond17/WJetsToLNu_HT-600To800_TuneCUETP8M1_13TeV-madgraphMLM-pythia8_RunIISummer16MiniAODv2-PUMoriond17_80X_mcRun2_asymptotic_2016_TrancheIV_v6_ext1-v1/V08-00-16/merged_ntuple_58.root
p167
aV/hadoop/cms/store/group/snt/run2_moriond17/WJetsToLNu_HT-600To800_TuneCUETP8M1_13TeV-madgraphMLM-pythia8_RunIISummer16MiniAODv2-PUMoriond17_80X_mcRun2_asymptotic_2016_TrancheIV_v6_ext1-v1/V08-00-16/merged_ntuple_59.root
p168
aV/hadoop/cms/store/group/snt/run2_moriond17/WJetsToLNu_HT-600To800_TuneCUETP8M1_13TeV-madgraphMLM-pythia8_RunIISummer16MiniAODv2-PUMoriond17_80X_mcRun2_asymptotic_2016_TrancheIV_v6_ext1-v1/V08-00-16/merged_ntuple_6.root
p169
aV/hadoop/cms/store/group/snt/run2_moriond17/WJetsToLNu_HT-600To800_TuneCUETP8M1_13TeV-madgraphMLM-pythia8_RunIISummer16MiniAODv2-PUMoriond17_80X_mcRun2_asymptotic_2016_TrancheIV_v6_ext1-v1/V08-00-16/merged_ntuple_60.root
p170
aV/hadoop/cms/store/group/snt/run2_moriond17/WJetsToLNu_HT-600To800_TuneCUETP8M1_13TeV-madgraphMLM-pythia8_RunIISummer16MiniAODv2-PUMoriond17_80X_mcRun2_asymptotic_2016_TrancheIV_v6_ext1-v1/V08-00-16/merged_ntuple_61.root
p171
aV/hadoop/cms/store/group/snt/run2_moriond17/WJetsToLNu_HT-600To800_TuneCUETP8M1_13TeV-madgraphMLM-pythia8_RunIISummer16MiniAODv2-PUMoriond17_80X_mcRun2_asymptotic_2016_TrancheIV_v6_ext1-v1/V08-00-16/merged_ntuple_62.root
p172
aV/hadoop/cms/store/group/snt/run2_moriond17/WJetsToLNu_HT-600To800_TuneCUETP8M1_13TeV-madgraphMLM-pythia8_RunIISummer16MiniAODv2-PUMoriond17_80X_mcRun2_asymptotic_2016_TrancheIV_v6_ext1-v1/V08-00-16/merged_ntuple_63.root
p173
aV/hadoop/cms/store/group/snt/run2_moriond17/WJetsToLNu_HT-600To800_TuneCUETP8M1_13TeV-madgraphMLM-pythia8_RunIISummer16MiniAODv2-PUMoriond17_80X_mcRun2_asymptotic_2016_TrancheIV_v6_ext1-v1/V08-00-16/merged_ntuple_64.root
p174
aV/hadoop/cms/store/group/snt/run2_moriond17/WJetsToLNu_HT-600To800_TuneCUETP8M1_13TeV-madgraphMLM-pythia8_RunIISummer16MiniAODv2-PUMoriond17_80X_mcRun2_asymptotic_2016_TrancheIV_v6_ext1-v1/V08-00-16/merged_ntuple_65.root
p175
aV/hadoop/cms/store/group/snt/run2_moriond17/WJetsToLNu_HT-600To800_TuneCUETP8M1_13TeV-madgraphMLM-pythia8_RunIISummer16MiniAODv2-PUMoriond17_80X_mcRun2_asymptotic_2016_TrancheIV_v6_ext1-v1/V08-00-16/merged_ntuple_66.root
p176
aV/hadoop/cms/store/group/snt/run2_moriond17/WJetsToLNu_HT-600To800_TuneCUETP8M1_13TeV-madgraphMLM-pythia8_RunIISummer16MiniAODv2-PUMoriond17_80X_mcRun2_asymptotic_2016_TrancheIV_v6_ext1-v1/V08-00-16/merged_ntuple_67.root
p177
aV/hadoop/cms/store/group/snt/run2_moriond17/WJetsToLNu_HT-600To800_TuneCUETP8M1_13TeV-madgraphMLM-pythia8_RunIISummer16MiniAODv2-PUMoriond17_80X_mcRun2_asymptotic_2016_TrancheIV_v6_ext1-v1/V08-00-16/merged_ntuple_68.root
p178
aV/hadoop/cms/store/group/snt/run2_moriond17/WJetsToLNu_HT-600To800_TuneCUETP8M1_13TeV-madgraphMLM-pythia8_RunIISummer16MiniAODv2-PUMoriond17_80X_mcRun2_asymptotic_2016_TrancheIV_v6_ext1-v1/V08-00-16/merged_ntuple_69.root
p179
aV/hadoop/cms/store/group/snt/run2_moriond17/WJetsToLNu_HT-600To800_TuneCUETP8M1_13TeV-madgraphMLM-pythia8_RunIISummer16MiniAODv2-PUMoriond17_80X_mcRun2_asymptotic_2016_TrancheIV_v6_ext1-v1/V08-00-16/merged_ntuple_7.root
p180
aV/hadoop/cms/store/group/snt/run2_moriond17/WJetsToLNu_HT-600To800_TuneCUETP8M1_13TeV-madgraphMLM-pythia8_RunIISummer16MiniAODv2-PUMoriond17_80X_mcRun2_asymptotic_2016_TrancheIV_v6_ext1-v1/V08-00-16/merged_ntuple_70.root
p181
aV/hadoop/cms/store/group/snt/run2_moriond17/WJetsToLNu_HT-600To800_TuneCUETP8M1_13TeV-madgraphMLM-pythia8_RunIISummer16MiniAODv2-PUMoriond17_80X_mcRun2_asymptotic_2016_TrancheIV_v6_ext1-v1/V08-00-16/merged_ntuple_71.root
p182
aV/hadoop/cms/store/group/snt/run2_moriond17/WJetsToLNu_HT-600To800_TuneCUETP8M1_13TeV-madgraphMLM-pythia8_RunIISummer16MiniAODv2-PUMoriond17_80X_mcRun2_asymptotic_2016_TrancheIV_v6_ext1-v1/V08-00-16/merged_ntuple_72.root
p183
aV/hadoop/cms/store/group/snt/run2_moriond17/WJetsToLNu_HT-600To800_TuneCUETP8M1_13TeV-madgraphMLM-pythia8_RunIISummer16MiniAODv2-PUMoriond17_80X_mcRun2_asymptotic_2016_TrancheIV_v6_ext1-v1/V08-00-16/merged_ntuple_73.root
p184
aV/hadoop/cms/store/group/snt/run2_moriond17/WJetsToLNu_HT-600To800_TuneCUETP8M1_13TeV-madgraphMLM-pythia8_RunIISummer16MiniAODv2-PUMoriond17_80X_mcRun2_asymptotic_2016_TrancheIV_v6_ext1-v1/V08-00-16/merged_ntuple_74.root
p185
aV/hadoop/cms/store/group/snt/run2_moriond17/WJetsToLNu_HT-600To800_TuneCUETP8M1_13TeV-madgraphMLM-pythia8_RunIISummer16MiniAODv2-PUMoriond17_80X_mcRun2_asymptotic_2016_TrancheIV_v6_ext1-v1/V08-00-16/merged_ntuple_75.root
p186
aV/hadoop/cms/store/group/snt/run2_moriond17/WJetsToLNu_HT-600To800_TuneCUETP8M1_13TeV-madgraphMLM-pythia8_RunIISummer16MiniAODv2-PUMoriond17_80X_mcRun2_asymptotic_2016_TrancheIV_v6_ext1-v1/V08-00-16/merged_ntuple_76.root
p187
aV/hadoop/cms/store/group/snt/run2_moriond17/WJetsToLNu_HT-600To800_TuneCUETP8M1_13TeV-madgraphMLM-pythia8_RunIISummer16MiniAODv2-PUMoriond17_80X_mcRun2_asymptotic_2016_TrancheIV_v6_ext1-v1/V08-00-16/merged_ntuple_77.root
p188
aV/hadoop/cms/store/group/snt/run2_moriond17/WJetsToLNu_HT-600To800_TuneCUETP8M1_13TeV-madgraphMLM-pythia8_RunIISummer16MiniAODv2-PUMoriond17_80X_mcRun2_asymptotic_2016_TrancheIV_v6_ext1-v1/V08-00-16/merged_ntuple_78.root
p189
aV/hadoop/cms/store/group/snt/run2_moriond17/WJetsToLNu_HT-600To800_TuneCUETP8M1_13TeV-madgraphMLM-pythia8_RunIISummer16MiniAODv2-PUMoriond17_80X_mcRun2_asymptotic_2016_TrancheIV_v6_ext1-v1/V08-00-16/merged_ntuple_79.root
p190
aV/hadoop/cms/store/group/snt/run2_moriond17/WJetsToLNu_HT-600To800_TuneCUETP8M1_13TeV-madgraphMLM-pythia8_RunIISummer16MiniAODv2-PUMoriond17_80X_mcRun2_asymptotic_2016_TrancheIV_v6_ext1-v1/V08-00-16/merged_ntuple_8.root
p191
aV/hadoop/cms/store/group/snt/run2_moriond17/WJetsToLNu_HT-600To800_TuneCUETP8M1_13TeV-madgraphMLM-pythia8_RunIISummer16MiniAODv2-PUMoriond17_80X_mcRun2_asymptotic_2016_TrancheIV_v6_ext1-v1/V08-00-16/merged_ntuple_80.root
p192
aV/hadoop/cms/store/group/snt/run2_moriond17/WJetsToLNu_HT-600To800_TuneCUETP8M1_13TeV-madgraphMLM-pythia8_RunIISummer16MiniAODv2-PUMoriond17_80X_mcRun2_asymptotic_2016_TrancheIV_v6_ext1-v1/V08-00-16/merged_ntuple_81.root
p193
aV/hadoop/cms/store/group/snt/run2_moriond17/WJetsToLNu_HT-600To800_TuneCUETP8M1_13TeV-madgraphMLM-pythia8_RunIISummer16MiniAODv2-PUMoriond17_80X_mcRun2_asymptotic_2016_TrancheIV_v6_ext1-v1/V08-00-16/merged_ntuple_82.root
p194
aV/hadoop/cms/store/group/snt/run2_moriond17/WJetsToLNu_HT-600To800_TuneCUETP8M1_13TeV-madgraphMLM-pythia8_RunIISummer16MiniAODv2-PUMoriond17_80X_mcRun2_asymptotic_2016_TrancheIV_v6_ext1-v1/V08-00-16/merged_ntuple_83.root
p195
aV/hadoop/cms/store/group/snt/run2_moriond17/WJetsToLNu_HT-600To800_TuneCUETP8M1_13TeV-madgraphMLM-pythia8_RunIISummer16MiniAODv2-PUMoriond17_80X_mcRun2_asymptotic_2016_TrancheIV_v6_ext1-v1/V08-00-16/merged_ntuple_84.root
p196
aV/hadoop/cms/store/group/snt/run2_moriond17/WJetsToLNu_HT-600To800_TuneCUETP8M1_13TeV-madgraphMLM-pythia8_RunIISummer16MiniAODv2-PUMoriond17_80X_mcRun2_asymptotic_2016_TrancheIV_v6_ext1-v1/V08-00-16/merged_ntuple_85.root
p197
aV/hadoop/cms/store/group/snt/run2_moriond17/WJetsToLNu_HT-600To800_TuneCUETP8M1_13TeV-madgraphMLM-pythia8_RunIISummer16MiniAODv2-PUMoriond17_80X_mcRun2_asymptotic_2016_TrancheIV_v6_ext1-v1/V08-00-16/merged_ntuple_86.root
p198
aV/hadoop/cms/store/group/snt/run2_moriond17/WJetsToLNu_HT-600To800_TuneCUETP8M1_13TeV-madgraphMLM-pythia8_RunIISummer16MiniAODv2-PUMoriond17_80X_mcRun2_asymptotic_2016_TrancheIV_v6_ext1-v1/V08-00-16/merged_ntuple_87.root
p199
aV/hadoop/cms/store/group/snt/run2_moriond17/WJetsToLNu_HT-600To800_TuneCUETP8M1_13TeV-madgraphMLM-pythia8_RunIISummer16MiniAODv2-PUMoriond17_80X_mcRun2_asymptotic_2016_TrancheIV_v6_ext1-v1/V08-00-16/merged_ntuple_88.root
p200
aV/hadoop/cms/store/group/snt/run2_moriond17/WJetsToLNu_HT-600To800_TuneCUETP8M1_13TeV-madgraphMLM-pythia8_RunIISummer16MiniAODv2-PUMoriond17_80X_mcRun2_asymptotic_2016_TrancheIV_v6_ext1-v1/V08-00-16/merged_ntuple_89.root
p201
aV/hadoop/cms/store/group/snt/run2_moriond17/WJetsToLNu_HT-600To800_TuneCUETP8M1_13TeV-madgraphMLM-pythia8_RunIISummer16MiniAODv2-PUMoriond17_80X_mcRun2_asymptotic_2016_TrancheIV_v6_ext1-v1/V08-00-16/merged_ntuple_9.root
p202
aV/hadoop/cms/store/group/snt/run2_moriond17/WJetsToLNu_HT-600To800_TuneCUETP8M1_13TeV-madgraphMLM-pythia8_RunIISummer16MiniAODv2-PUMoriond17_80X_mcRun2_asymptotic_2016_TrancheIV_v6_ext1-v1/V08-00-16/merged_ntuple_90.root
p203
aV/hadoop/cms/store/group/snt/run2_moriond17/WJetsToLNu_HT-600To800_TuneCUETP8M1_13TeV-madgraphMLM-pythia8_RunIISummer16MiniAODv2-PUMoriond17_80X_mcRun2_asymptotic_2016_TrancheIV_v6_ext1-v1/V08-00-16/merged_ntuple_91.root
p204
assS'nevents_unmerged'
p205
I0
sg100
g101
sS'postprocessing'
p206
(dp207
g92
I0
sg78
I9
sg55
I9
sg107
I0
ssS'nevents_merged'
p208
I0
sS'nevents_DAS'
p209
I0
ssS'misc'
p210
(dp211
S'rootfiles'
p212
(lp213
sS'crab_config'
p214
NsS'last_saved'
p215
I1503478644
sS'handled_more_than_1k'
p216
I00
sS'can_skip_tail'
p217
I00
sS'email_when_done'
p218
I00
sS'update_dis_when_done'
p219
I00
sS'pfx_babies'
p220
S'babies'
p221
sS'logfiles'
p222
(lp223
sS'pfx_pset'
p224
g7
sS'pfx_crab'
p225
g32
ss.